Archive member included to satisfy reference by file (symbol)

c:/program files (x86)/atmel/studio/7.0/toolchain/avr8/avr8-gnu-toolchain/bin/../lib/gcc/avr/5.4.0/avr5\libgcc.a(_divmodhi4.o)
                              SP10281_3x7segment.o (__divmodhi4)
c:/program files (x86)/atmel/studio/7.0/toolchain/avr8/avr8-gnu-toolchain/bin/../lib/gcc/avr/5.4.0/avr5\libgcc.a(_udivmodsi4.o)
                              Timer.o (__udivmodsi4)
c:/program files (x86)/atmel/studio/7.0/toolchain/avr8/avr8-gnu-toolchain/bin/../lib/gcc/avr/5.4.0/avr5\libgcc.a(_exit.o)
                              C:/Program Files (x86)/Atmel/Studio/7.0/Packs/Atmel/ATmega_DFP/1.3.300/gcc/dev/atmega324pa/avr5/crtatmega324pa.o (exit)
c:/program files (x86)/atmel/studio/7.0/toolchain/avr8/avr8-gnu-toolchain/bin/../lib/gcc/avr/5.4.0/avr5\libgcc.a(_tablejump2.o)
                              System.o (__tablejump2__)
c:/program files (x86)/atmel/studio/7.0/toolchain/avr8/avr8-gnu-toolchain/bin/../lib/gcc/avr/5.4.0/avr5\libgcc.a(_copy_data.o)
                              MCP23017.o (__do_copy_data)
c:/program files (x86)/atmel/studio/7.0/toolchain/avr8/avr8-gnu-toolchain/bin/../lib/gcc/avr/5.4.0/avr5\libgcc.a(_clear_bss.o)
                              MCP23017.o (__do_clear_bss)
c:/program files (x86)/atmel/studio/7.0/toolchain/avr8/avr8-gnu-toolchain/bin/../lib/gcc/avr/5.4.0/avr5\libgcc.a(_ctors.o)
                              UI.o (__do_global_ctors)
c:/program files (x86)/atmel/studio/7.0/toolchain/avr8/avr8-gnu-toolchain/bin/../lib/gcc/avr/5.4.0/avr5\libgcc.a(_muluhisi3.o)
                              Timer.o (__muluhisi3)
c:/program files (x86)/atmel/studio/7.0/toolchain/avr8/avr8-gnu-toolchain/bin/../lib/gcc/avr/5.4.0/avr5\libgcc.a(_udivmodhi4.o)
                              c:/program files (x86)/atmel/studio/7.0/toolchain/avr8/avr8-gnu-toolchain/bin/../lib/gcc/avr/5.4.0/avr5\libgcc.a(_divmodhi4.o) (__udivmodhi4)
c:/program files (x86)/atmel/studio/7.0/toolchain/avr8/avr8-gnu-toolchain/bin/../lib/gcc/avr/5.4.0/avr5\libgcc.a(_umulhisi3.o)
                              c:/program files (x86)/atmel/studio/7.0/toolchain/avr8/avr8-gnu-toolchain/bin/../lib/gcc/avr/5.4.0/avr5\libgcc.a(_muluhisi3.o) (__umulhisi3)
C:/Program Files (x86)/Atmel/Studio/7.0/Packs/Atmel/ATmega_DFP/1.3.300/gcc/dev/atmega324pa/avr5\libatmega324pa.a(eerd_block.o)
                              System.o (eeprom_read_block)
C:/Program Files (x86)/Atmel/Studio/7.0/Packs/Atmel/ATmega_DFP/1.3.300/gcc/dev/atmega324pa/avr5\libatmega324pa.a(eerd_byte.o)
                              System.o (eeprom_read_byte)
C:/Program Files (x86)/Atmel/Studio/7.0/Packs/Atmel/ATmega_DFP/1.3.300/gcc/dev/atmega324pa/avr5\libatmega324pa.a(eewr_block.o)
                              System.o (eeprom_write_block)
C:/Program Files (x86)/Atmel/Studio/7.0/Packs/Atmel/ATmega_DFP/1.3.300/gcc/dev/atmega324pa/avr5\libatmega324pa.a(eewr_byte.o)
                              System.o (eeprom_write_byte)

Discarded input sections

 .data          0x00000000        0x0 C:/Program Files (x86)/Atmel/Studio/7.0/Packs/Atmel/ATmega_DFP/1.3.300/gcc/dev/atmega324pa/avr5/crtatmega324pa.o
 .bss           0x00000000        0x0 C:/Program Files (x86)/Atmel/Studio/7.0/Packs/Atmel/ATmega_DFP/1.3.300/gcc/dev/atmega324pa/avr5/crtatmega324pa.o
 .text          0x00000000        0x0 i2cmaster.o
 .data          0x00000000        0x0 i2cmaster.o
 .bss           0x00000000        0x0 i2cmaster.o
 .text._Z14i2c_start_waith
                0x00000000       0x50 i2cmaster.o
 .text._Z13i2c_rep_starth
                0x00000000        0x6 i2cmaster.o
 .text._Z11i2c_readAckv
                0x00000000       0x16 i2cmaster.o
 .text          0x00000000        0x0 main.o
 .data          0x00000000        0x0 main.o
 .bss           0x00000000        0x0 main.o
 .text          0x00000000        0x0 MCP23017.o
 .data          0x00000000        0x0 MCP23017.o
 .bss           0x00000000        0x0 MCP23017.o
 .text._ZN10MCP_Output6ToggleEv
                0x00000000       0x1c MCP23017.o
 .text._ZN9MCP_InputC2Ev
                0x00000000        0x2 MCP23017.o
 .text._ZN9MCP_InputC2Eh13MCP23017_Port12MCP23017_Pin
                0x00000000       0x40 MCP23017.o
 .text._ZN9MCP_Input4ReadEv
                0x00000000       0x36 MCP23017.o
 .text          0x00000000        0x0 MIDI.o
 .data          0x00000000        0x0 MIDI.o
 .bss           0x00000000        0x0 MIDI.o
 .text          0x00000000        0x0 PedalCom.o
 .data          0x00000000        0x0 PedalCom.o
 .bss           0x00000000        0x0 PedalCom.o
 .text          0x00000000        0x0 RotaryEncoder.o
 .data          0x00000000        0x0 RotaryEncoder.o
 .bss           0x00000000        0x0 RotaryEncoder.o
 .text          0x00000000        0x0 SP10281_3x7segment.o
 .data          0x00000000        0x0 SP10281_3x7segment.o
 .bss           0x00000000        0x0 SP10281_3x7segment.o
 .text          0x00000000        0x0 System.o
 .data          0x00000000        0x0 System.o
 .bss           0x00000000        0x0 System.o
 .text._Z22System_UpdateUI_Relaysv
                0x00000000       0xca System.o
 .text          0x00000000        0x0 Timer.o
 .data          0x00000000        0x0 Timer.o
 .bss           0x00000000        0x0 Timer.o
 .text          0x00000000        0x0 UART.o
 .data          0x00000000        0x0 UART.o
 .bss           0x00000000        0x0 UART.o
 .text._Z13UART0_PutCharh
                0x00000000       0x2a UART.o
 .text._Z15UART0_PutStringPKc
                0x00000000       0x1e UART.o
 .text._Z17UART0_PutString_pPKc
                0x00000000       0x24 UART.o
 .text._Z11UART0_Flushv
                0x00000000        0xa UART.o
 .text._Z16UART0_QueueArrayPKch
                0x00000000       0x32 UART.o
 .text._Z17UART1_PutString_pPKc
                0x00000000       0x24 UART.o
 .text._Z11UART1_Flushv
                0x00000000        0xa UART.o
 .text          0x00000000        0x0 UI.o
 .data          0x00000000        0x0 UI.o
 .bss           0x00000000        0x0 UI.o
 .text          0x00000000        0x0 util.o
 .data          0x00000000        0x0 util.o
 .bss           0x00000000        0x0 util.o
 .text._Z16Util_ReverseByteh
                0x00000000       0x24 util.o
 .text          0x00000000        0x0 c:/program files (x86)/atmel/studio/7.0/toolchain/avr8/avr8-gnu-toolchain/bin/../lib/gcc/avr/5.4.0/avr5\libgcc.a(_divmodhi4.o)
 .data          0x00000000        0x0 c:/program files (x86)/atmel/studio/7.0/toolchain/avr8/avr8-gnu-toolchain/bin/../lib/gcc/avr/5.4.0/avr5\libgcc.a(_divmodhi4.o)
 .bss           0x00000000        0x0 c:/program files (x86)/atmel/studio/7.0/toolchain/avr8/avr8-gnu-toolchain/bin/../lib/gcc/avr/5.4.0/avr5\libgcc.a(_divmodhi4.o)
 .text.libgcc.mul
                0x00000000        0x0 c:/program files (x86)/atmel/studio/7.0/toolchain/avr8/avr8-gnu-toolchain/bin/../lib/gcc/avr/5.4.0/avr5\libgcc.a(_divmodhi4.o)
 .text.libgcc   0x00000000        0x0 c:/program files (x86)/atmel/studio/7.0/toolchain/avr8/avr8-gnu-toolchain/bin/../lib/gcc/avr/5.4.0/avr5\libgcc.a(_divmodhi4.o)
 .text.libgcc.prologue
                0x00000000        0x0 c:/program files (x86)/atmel/studio/7.0/toolchain/avr8/avr8-gnu-toolchain/bin/../lib/gcc/avr/5.4.0/avr5\libgcc.a(_divmodhi4.o)
 .text.libgcc.builtins
                0x00000000        0x0 c:/program files (x86)/atmel/studio/7.0/toolchain/avr8/avr8-gnu-toolchain/bin/../lib/gcc/avr/5.4.0/avr5\libgcc.a(_divmodhi4.o)
 .text.libgcc.fmul
                0x00000000        0x0 c:/program files (x86)/atmel/studio/7.0/toolchain/avr8/avr8-gnu-toolchain/bin/../lib/gcc/avr/5.4.0/avr5\libgcc.a(_divmodhi4.o)
 .text.libgcc.fixed
                0x00000000        0x0 c:/program files (x86)/atmel/studio/7.0/toolchain/avr8/avr8-gnu-toolchain/bin/../lib/gcc/avr/5.4.0/avr5\libgcc.a(_divmodhi4.o)
 .text          0x00000000        0x0 c:/program files (x86)/atmel/studio/7.0/toolchain/avr8/avr8-gnu-toolchain/bin/../lib/gcc/avr/5.4.0/avr5\libgcc.a(_udivmodsi4.o)
 .data          0x00000000        0x0 c:/program files (x86)/atmel/studio/7.0/toolchain/avr8/avr8-gnu-toolchain/bin/../lib/gcc/avr/5.4.0/avr5\libgcc.a(_udivmodsi4.o)
 .bss           0x00000000        0x0 c:/program files (x86)/atmel/studio/7.0/toolchain/avr8/avr8-gnu-toolchain/bin/../lib/gcc/avr/5.4.0/avr5\libgcc.a(_udivmodsi4.o)
 .text.libgcc.mul
                0x00000000        0x0 c:/program files (x86)/atmel/studio/7.0/toolchain/avr8/avr8-gnu-toolchain/bin/../lib/gcc/avr/5.4.0/avr5\libgcc.a(_udivmodsi4.o)
 .text.libgcc   0x00000000        0x0 c:/program files (x86)/atmel/studio/7.0/toolchain/avr8/avr8-gnu-toolchain/bin/../lib/gcc/avr/5.4.0/avr5\libgcc.a(_udivmodsi4.o)
 .text.libgcc.prologue
                0x00000000        0x0 c:/program files (x86)/atmel/studio/7.0/toolchain/avr8/avr8-gnu-toolchain/bin/../lib/gcc/avr/5.4.0/avr5\libgcc.a(_udivmodsi4.o)
 .text.libgcc.builtins
                0x00000000        0x0 c:/program files (x86)/atmel/studio/7.0/toolchain/avr8/avr8-gnu-toolchain/bin/../lib/gcc/avr/5.4.0/avr5\libgcc.a(_udivmodsi4.o)
 .text.libgcc.fmul
                0x00000000        0x0 c:/program files (x86)/atmel/studio/7.0/toolchain/avr8/avr8-gnu-toolchain/bin/../lib/gcc/avr/5.4.0/avr5\libgcc.a(_udivmodsi4.o)
 .text.libgcc.fixed
                0x00000000        0x0 c:/program files (x86)/atmel/studio/7.0/toolchain/avr8/avr8-gnu-toolchain/bin/../lib/gcc/avr/5.4.0/avr5\libgcc.a(_udivmodsi4.o)
 .text          0x00000000        0x0 c:/program files (x86)/atmel/studio/7.0/toolchain/avr8/avr8-gnu-toolchain/bin/../lib/gcc/avr/5.4.0/avr5\libgcc.a(_exit.o)
 .data          0x00000000        0x0 c:/program files (x86)/atmel/studio/7.0/toolchain/avr8/avr8-gnu-toolchain/bin/../lib/gcc/avr/5.4.0/avr5\libgcc.a(_exit.o)
 .bss           0x00000000        0x0 c:/program files (x86)/atmel/studio/7.0/toolchain/avr8/avr8-gnu-toolchain/bin/../lib/gcc/avr/5.4.0/avr5\libgcc.a(_exit.o)
 .text.libgcc.mul
                0x00000000        0x0 c:/program files (x86)/atmel/studio/7.0/toolchain/avr8/avr8-gnu-toolchain/bin/../lib/gcc/avr/5.4.0/avr5\libgcc.a(_exit.o)
 .text.libgcc.div
                0x00000000        0x0 c:/program files (x86)/atmel/studio/7.0/toolchain/avr8/avr8-gnu-toolchain/bin/../lib/gcc/avr/5.4.0/avr5\libgcc.a(_exit.o)
 .text.libgcc   0x00000000        0x0 c:/program files (x86)/atmel/studio/7.0/toolchain/avr8/avr8-gnu-toolchain/bin/../lib/gcc/avr/5.4.0/avr5\libgcc.a(_exit.o)
 .text.libgcc.prologue
                0x00000000        0x0 c:/program files (x86)/atmel/studio/7.0/toolchain/avr8/avr8-gnu-toolchain/bin/../lib/gcc/avr/5.4.0/avr5\libgcc.a(_exit.o)
 .text.libgcc.builtins
                0x00000000        0x0 c:/program files (x86)/atmel/studio/7.0/toolchain/avr8/avr8-gnu-toolchain/bin/../lib/gcc/avr/5.4.0/avr5\libgcc.a(_exit.o)
 .text.libgcc.fmul
                0x00000000        0x0 c:/program files (x86)/atmel/studio/7.0/toolchain/avr8/avr8-gnu-toolchain/bin/../lib/gcc/avr/5.4.0/avr5\libgcc.a(_exit.o)
 .text.libgcc.fixed
                0x00000000        0x0 c:/program files (x86)/atmel/studio/7.0/toolchain/avr8/avr8-gnu-toolchain/bin/../lib/gcc/avr/5.4.0/avr5\libgcc.a(_exit.o)
 .text          0x00000000        0x0 c:/program files (x86)/atmel/studio/7.0/toolchain/avr8/avr8-gnu-toolchain/bin/../lib/gcc/avr/5.4.0/avr5\libgcc.a(_tablejump2.o)
 .data          0x00000000        0x0 c:/program files (x86)/atmel/studio/7.0/toolchain/avr8/avr8-gnu-toolchain/bin/../lib/gcc/avr/5.4.0/avr5\libgcc.a(_tablejump2.o)
 .bss           0x00000000        0x0 c:/program files (x86)/atmel/studio/7.0/toolchain/avr8/avr8-gnu-toolchain/bin/../lib/gcc/avr/5.4.0/avr5\libgcc.a(_tablejump2.o)
 .text.libgcc.mul
                0x00000000        0x0 c:/program files (x86)/atmel/studio/7.0/toolchain/avr8/avr8-gnu-toolchain/bin/../lib/gcc/avr/5.4.0/avr5\libgcc.a(_tablejump2.o)
 .text.libgcc.div
                0x00000000        0x0 c:/program files (x86)/atmel/studio/7.0/toolchain/avr8/avr8-gnu-toolchain/bin/../lib/gcc/avr/5.4.0/avr5\libgcc.a(_tablejump2.o)
 .text.libgcc.prologue
                0x00000000        0x0 c:/program files (x86)/atmel/studio/7.0/toolchain/avr8/avr8-gnu-toolchain/bin/../lib/gcc/avr/5.4.0/avr5\libgcc.a(_tablejump2.o)
 .text.libgcc.builtins
                0x00000000        0x0 c:/program files (x86)/atmel/studio/7.0/toolchain/avr8/avr8-gnu-toolchain/bin/../lib/gcc/avr/5.4.0/avr5\libgcc.a(_tablejump2.o)
 .text.libgcc.fmul
                0x00000000        0x0 c:/program files (x86)/atmel/studio/7.0/toolchain/avr8/avr8-gnu-toolchain/bin/../lib/gcc/avr/5.4.0/avr5\libgcc.a(_tablejump2.o)
 .text.libgcc.fixed
                0x00000000        0x0 c:/program files (x86)/atmel/studio/7.0/toolchain/avr8/avr8-gnu-toolchain/bin/../lib/gcc/avr/5.4.0/avr5\libgcc.a(_tablejump2.o)
 .text          0x00000000        0x0 c:/program files (x86)/atmel/studio/7.0/toolchain/avr8/avr8-gnu-toolchain/bin/../lib/gcc/avr/5.4.0/avr5\libgcc.a(_copy_data.o)
 .data          0x00000000        0x0 c:/program files (x86)/atmel/studio/7.0/toolchain/avr8/avr8-gnu-toolchain/bin/../lib/gcc/avr/5.4.0/avr5\libgcc.a(_copy_data.o)
 .bss           0x00000000        0x0 c:/program files (x86)/atmel/studio/7.0/toolchain/avr8/avr8-gnu-toolchain/bin/../lib/gcc/avr/5.4.0/avr5\libgcc.a(_copy_data.o)
 .text.libgcc.mul
                0x00000000        0x0 c:/program files (x86)/atmel/studio/7.0/toolchain/avr8/avr8-gnu-toolchain/bin/../lib/gcc/avr/5.4.0/avr5\libgcc.a(_copy_data.o)
 .text.libgcc.div
                0x00000000        0x0 c:/program files (x86)/atmel/studio/7.0/toolchain/avr8/avr8-gnu-toolchain/bin/../lib/gcc/avr/5.4.0/avr5\libgcc.a(_copy_data.o)
 .text.libgcc   0x00000000        0x0 c:/program files (x86)/atmel/studio/7.0/toolchain/avr8/avr8-gnu-toolchain/bin/../lib/gcc/avr/5.4.0/avr5\libgcc.a(_copy_data.o)
 .text.libgcc.prologue
                0x00000000        0x0 c:/program files (x86)/atmel/studio/7.0/toolchain/avr8/avr8-gnu-toolchain/bin/../lib/gcc/avr/5.4.0/avr5\libgcc.a(_copy_data.o)
 .text.libgcc.builtins
                0x00000000        0x0 c:/program files (x86)/atmel/studio/7.0/toolchain/avr8/avr8-gnu-toolchain/bin/../lib/gcc/avr/5.4.0/avr5\libgcc.a(_copy_data.o)
 .text.libgcc.fmul
                0x00000000        0x0 c:/program files (x86)/atmel/studio/7.0/toolchain/avr8/avr8-gnu-toolchain/bin/../lib/gcc/avr/5.4.0/avr5\libgcc.a(_copy_data.o)
 .text.libgcc.fixed
                0x00000000        0x0 c:/program files (x86)/atmel/studio/7.0/toolchain/avr8/avr8-gnu-toolchain/bin/../lib/gcc/avr/5.4.0/avr5\libgcc.a(_copy_data.o)
 .text          0x00000000        0x0 c:/program files (x86)/atmel/studio/7.0/toolchain/avr8/avr8-gnu-toolchain/bin/../lib/gcc/avr/5.4.0/avr5\libgcc.a(_clear_bss.o)
 .data          0x00000000        0x0 c:/program files (x86)/atmel/studio/7.0/toolchain/avr8/avr8-gnu-toolchain/bin/../lib/gcc/avr/5.4.0/avr5\libgcc.a(_clear_bss.o)
 .bss           0x00000000        0x0 c:/program files (x86)/atmel/studio/7.0/toolchain/avr8/avr8-gnu-toolchain/bin/../lib/gcc/avr/5.4.0/avr5\libgcc.a(_clear_bss.o)
 .text.libgcc.mul
                0x00000000        0x0 c:/program files (x86)/atmel/studio/7.0/toolchain/avr8/avr8-gnu-toolchain/bin/../lib/gcc/avr/5.4.0/avr5\libgcc.a(_clear_bss.o)
 .text.libgcc.div
                0x00000000        0x0 c:/program files (x86)/atmel/studio/7.0/toolchain/avr8/avr8-gnu-toolchain/bin/../lib/gcc/avr/5.4.0/avr5\libgcc.a(_clear_bss.o)
 .text.libgcc   0x00000000        0x0 c:/program files (x86)/atmel/studio/7.0/toolchain/avr8/avr8-gnu-toolchain/bin/../lib/gcc/avr/5.4.0/avr5\libgcc.a(_clear_bss.o)
 .text.libgcc.prologue
                0x00000000        0x0 c:/program files (x86)/atmel/studio/7.0/toolchain/avr8/avr8-gnu-toolchain/bin/../lib/gcc/avr/5.4.0/avr5\libgcc.a(_clear_bss.o)
 .text.libgcc.builtins
                0x00000000        0x0 c:/program files (x86)/atmel/studio/7.0/toolchain/avr8/avr8-gnu-toolchain/bin/../lib/gcc/avr/5.4.0/avr5\libgcc.a(_clear_bss.o)
 .text.libgcc.fmul
                0x00000000        0x0 c:/program files (x86)/atmel/studio/7.0/toolchain/avr8/avr8-gnu-toolchain/bin/../lib/gcc/avr/5.4.0/avr5\libgcc.a(_clear_bss.o)
 .text.libgcc.fixed
                0x00000000        0x0 c:/program files (x86)/atmel/studio/7.0/toolchain/avr8/avr8-gnu-toolchain/bin/../lib/gcc/avr/5.4.0/avr5\libgcc.a(_clear_bss.o)
 .text          0x00000000        0x0 c:/program files (x86)/atmel/studio/7.0/toolchain/avr8/avr8-gnu-toolchain/bin/../lib/gcc/avr/5.4.0/avr5\libgcc.a(_ctors.o)
 .data          0x00000000        0x0 c:/program files (x86)/atmel/studio/7.0/toolchain/avr8/avr8-gnu-toolchain/bin/../lib/gcc/avr/5.4.0/avr5\libgcc.a(_ctors.o)
 .bss           0x00000000        0x0 c:/program files (x86)/atmel/studio/7.0/toolchain/avr8/avr8-gnu-toolchain/bin/../lib/gcc/avr/5.4.0/avr5\libgcc.a(_ctors.o)
 .text.libgcc.mul
                0x00000000        0x0 c:/program files (x86)/atmel/studio/7.0/toolchain/avr8/avr8-gnu-toolchain/bin/../lib/gcc/avr/5.4.0/avr5\libgcc.a(_ctors.o)
 .text.libgcc.div
                0x00000000        0x0 c:/program files (x86)/atmel/studio/7.0/toolchain/avr8/avr8-gnu-toolchain/bin/../lib/gcc/avr/5.4.0/avr5\libgcc.a(_ctors.o)
 .text.libgcc   0x00000000        0x0 c:/program files (x86)/atmel/studio/7.0/toolchain/avr8/avr8-gnu-toolchain/bin/../lib/gcc/avr/5.4.0/avr5\libgcc.a(_ctors.o)
 .text.libgcc.prologue
                0x00000000        0x0 c:/program files (x86)/atmel/studio/7.0/toolchain/avr8/avr8-gnu-toolchain/bin/../lib/gcc/avr/5.4.0/avr5\libgcc.a(_ctors.o)
 .text.libgcc.builtins
                0x00000000        0x0 c:/program files (x86)/atmel/studio/7.0/toolchain/avr8/avr8-gnu-toolchain/bin/../lib/gcc/avr/5.4.0/avr5\libgcc.a(_ctors.o)
 .text.libgcc.fmul
                0x00000000        0x0 c:/program files (x86)/atmel/studio/7.0/toolchain/avr8/avr8-gnu-toolchain/bin/../lib/gcc/avr/5.4.0/avr5\libgcc.a(_ctors.o)
 .text.libgcc.fixed
                0x00000000        0x0 c:/program files (x86)/atmel/studio/7.0/toolchain/avr8/avr8-gnu-toolchain/bin/../lib/gcc/avr/5.4.0/avr5\libgcc.a(_ctors.o)
 .text          0x00000000        0x0 c:/program files (x86)/atmel/studio/7.0/toolchain/avr8/avr8-gnu-toolchain/bin/../lib/gcc/avr/5.4.0/avr5\libgcc.a(_muluhisi3.o)
 .data          0x00000000        0x0 c:/program files (x86)/atmel/studio/7.0/toolchain/avr8/avr8-gnu-toolchain/bin/../lib/gcc/avr/5.4.0/avr5\libgcc.a(_muluhisi3.o)
 .bss           0x00000000        0x0 c:/program files (x86)/atmel/studio/7.0/toolchain/avr8/avr8-gnu-toolchain/bin/../lib/gcc/avr/5.4.0/avr5\libgcc.a(_muluhisi3.o)
 .text.libgcc.div
                0x00000000        0x0 c:/program files (x86)/atmel/studio/7.0/toolchain/avr8/avr8-gnu-toolchain/bin/../lib/gcc/avr/5.4.0/avr5\libgcc.a(_muluhisi3.o)
 .text.libgcc   0x00000000        0x0 c:/program files (x86)/atmel/studio/7.0/toolchain/avr8/avr8-gnu-toolchain/bin/../lib/gcc/avr/5.4.0/avr5\libgcc.a(_muluhisi3.o)
 .text.libgcc.prologue
                0x00000000        0x0 c:/program files (x86)/atmel/studio/7.0/toolchain/avr8/avr8-gnu-toolchain/bin/../lib/gcc/avr/5.4.0/avr5\libgcc.a(_muluhisi3.o)
 .text.libgcc.builtins
                0x00000000        0x0 c:/program files (x86)/atmel/studio/7.0/toolchain/avr8/avr8-gnu-toolchain/bin/../lib/gcc/avr/5.4.0/avr5\libgcc.a(_muluhisi3.o)
 .text.libgcc.fmul
                0x00000000        0x0 c:/program files (x86)/atmel/studio/7.0/toolchain/avr8/avr8-gnu-toolchain/bin/../lib/gcc/avr/5.4.0/avr5\libgcc.a(_muluhisi3.o)
 .text.libgcc.fixed
                0x00000000        0x0 c:/program files (x86)/atmel/studio/7.0/toolchain/avr8/avr8-gnu-toolchain/bin/../lib/gcc/avr/5.4.0/avr5\libgcc.a(_muluhisi3.o)
 .text          0x00000000        0x0 c:/program files (x86)/atmel/studio/7.0/toolchain/avr8/avr8-gnu-toolchain/bin/../lib/gcc/avr/5.4.0/avr5\libgcc.a(_udivmodhi4.o)
 .data          0x00000000        0x0 c:/program files (x86)/atmel/studio/7.0/toolchain/avr8/avr8-gnu-toolchain/bin/../lib/gcc/avr/5.4.0/avr5\libgcc.a(_udivmodhi4.o)
 .bss           0x00000000        0x0 c:/program files (x86)/atmel/studio/7.0/toolchain/avr8/avr8-gnu-toolchain/bin/../lib/gcc/avr/5.4.0/avr5\libgcc.a(_udivmodhi4.o)
 .text.libgcc.mul
                0x00000000        0x0 c:/program files (x86)/atmel/studio/7.0/toolchain/avr8/avr8-gnu-toolchain/bin/../lib/gcc/avr/5.4.0/avr5\libgcc.a(_udivmodhi4.o)
 .text.libgcc   0x00000000        0x0 c:/program files (x86)/atmel/studio/7.0/toolchain/avr8/avr8-gnu-toolchain/bin/../lib/gcc/avr/5.4.0/avr5\libgcc.a(_udivmodhi4.o)
 .text.libgcc.prologue
                0x00000000        0x0 c:/program files (x86)/atmel/studio/7.0/toolchain/avr8/avr8-gnu-toolchain/bin/../lib/gcc/avr/5.4.0/avr5\libgcc.a(_udivmodhi4.o)
 .text.libgcc.builtins
                0x00000000        0x0 c:/program files (x86)/atmel/studio/7.0/toolchain/avr8/avr8-gnu-toolchain/bin/../lib/gcc/avr/5.4.0/avr5\libgcc.a(_udivmodhi4.o)
 .text.libgcc.fmul
                0x00000000        0x0 c:/program files (x86)/atmel/studio/7.0/toolchain/avr8/avr8-gnu-toolchain/bin/../lib/gcc/avr/5.4.0/avr5\libgcc.a(_udivmodhi4.o)
 .text.libgcc.fixed
                0x00000000        0x0 c:/program files (x86)/atmel/studio/7.0/toolchain/avr8/avr8-gnu-toolchain/bin/../lib/gcc/avr/5.4.0/avr5\libgcc.a(_udivmodhi4.o)
 .text          0x00000000        0x0 c:/program files (x86)/atmel/studio/7.0/toolchain/avr8/avr8-gnu-toolchain/bin/../lib/gcc/avr/5.4.0/avr5\libgcc.a(_umulhisi3.o)
 .data          0x00000000        0x0 c:/program files (x86)/atmel/studio/7.0/toolchain/avr8/avr8-gnu-toolchain/bin/../lib/gcc/avr/5.4.0/avr5\libgcc.a(_umulhisi3.o)
 .bss           0x00000000        0x0 c:/program files (x86)/atmel/studio/7.0/toolchain/avr8/avr8-gnu-toolchain/bin/../lib/gcc/avr/5.4.0/avr5\libgcc.a(_umulhisi3.o)
 .text.libgcc.div
                0x00000000        0x0 c:/program files (x86)/atmel/studio/7.0/toolchain/avr8/avr8-gnu-toolchain/bin/../lib/gcc/avr/5.4.0/avr5\libgcc.a(_umulhisi3.o)
 .text.libgcc   0x00000000        0x0 c:/program files (x86)/atmel/studio/7.0/toolchain/avr8/avr8-gnu-toolchain/bin/../lib/gcc/avr/5.4.0/avr5\libgcc.a(_umulhisi3.o)
 .text.libgcc.prologue
                0x00000000        0x0 c:/program files (x86)/atmel/studio/7.0/toolchain/avr8/avr8-gnu-toolchain/bin/../lib/gcc/avr/5.4.0/avr5\libgcc.a(_umulhisi3.o)
 .text.libgcc.builtins
                0x00000000        0x0 c:/program files (x86)/atmel/studio/7.0/toolchain/avr8/avr8-gnu-toolchain/bin/../lib/gcc/avr/5.4.0/avr5\libgcc.a(_umulhisi3.o)
 .text.libgcc.fmul
                0x00000000        0x0 c:/program files (x86)/atmel/studio/7.0/toolchain/avr8/avr8-gnu-toolchain/bin/../lib/gcc/avr/5.4.0/avr5\libgcc.a(_umulhisi3.o)
 .text.libgcc.fixed
                0x00000000        0x0 c:/program files (x86)/atmel/studio/7.0/toolchain/avr8/avr8-gnu-toolchain/bin/../lib/gcc/avr/5.4.0/avr5\libgcc.a(_umulhisi3.o)
 .text          0x00000000        0x0 C:/Program Files (x86)/Atmel/Studio/7.0/Packs/Atmel/ATmega_DFP/1.3.300/gcc/dev/atmega324pa/avr5\libatmega324pa.a(eerd_block.o)
 .data          0x00000000        0x0 C:/Program Files (x86)/Atmel/Studio/7.0/Packs/Atmel/ATmega_DFP/1.3.300/gcc/dev/atmega324pa/avr5\libatmega324pa.a(eerd_block.o)
 .bss           0x00000000        0x0 C:/Program Files (x86)/Atmel/Studio/7.0/Packs/Atmel/ATmega_DFP/1.3.300/gcc/dev/atmega324pa/avr5\libatmega324pa.a(eerd_block.o)
 .text          0x00000000        0x0 C:/Program Files (x86)/Atmel/Studio/7.0/Packs/Atmel/ATmega_DFP/1.3.300/gcc/dev/atmega324pa/avr5\libatmega324pa.a(eerd_byte.o)
 .data          0x00000000        0x0 C:/Program Files (x86)/Atmel/Studio/7.0/Packs/Atmel/ATmega_DFP/1.3.300/gcc/dev/atmega324pa/avr5\libatmega324pa.a(eerd_byte.o)
 .bss           0x00000000        0x0 C:/Program Files (x86)/Atmel/Studio/7.0/Packs/Atmel/ATmega_DFP/1.3.300/gcc/dev/atmega324pa/avr5\libatmega324pa.a(eerd_byte.o)
 .text          0x00000000        0x0 C:/Program Files (x86)/Atmel/Studio/7.0/Packs/Atmel/ATmega_DFP/1.3.300/gcc/dev/atmega324pa/avr5\libatmega324pa.a(eewr_block.o)
 .data          0x00000000        0x0 C:/Program Files (x86)/Atmel/Studio/7.0/Packs/Atmel/ATmega_DFP/1.3.300/gcc/dev/atmega324pa/avr5\libatmega324pa.a(eewr_block.o)
 .bss           0x00000000        0x0 C:/Program Files (x86)/Atmel/Studio/7.0/Packs/Atmel/ATmega_DFP/1.3.300/gcc/dev/atmega324pa/avr5\libatmega324pa.a(eewr_block.o)
 .text          0x00000000        0x0 C:/Program Files (x86)/Atmel/Studio/7.0/Packs/Atmel/ATmega_DFP/1.3.300/gcc/dev/atmega324pa/avr5\libatmega324pa.a(eewr_byte.o)
 .data          0x00000000        0x0 C:/Program Files (x86)/Atmel/Studio/7.0/Packs/Atmel/ATmega_DFP/1.3.300/gcc/dev/atmega324pa/avr5\libatmega324pa.a(eewr_byte.o)
 .bss           0x00000000        0x0 C:/Program Files (x86)/Atmel/Studio/7.0/Packs/Atmel/ATmega_DFP/1.3.300/gcc/dev/atmega324pa/avr5\libatmega324pa.a(eewr_byte.o)

Memory Configuration

Name             Origin             Length             Attributes
text             0x00000000         0x00020000         xr
data             0x00800060         0x0000ffa0         rw !x
eeprom           0x00810000         0x00010000         rw !x
fuse             0x00820000         0x00000003         rw !x
lock             0x00830000         0x00000400         rw !x
signature        0x00840000         0x00000400         rw !x
user_signatures  0x00850000         0x00000400         rw !x
*default*        0x00000000         0xffffffff

Linker script and memory map

Address of section .data set to 0x800100
LOAD C:/Program Files (x86)/Atmel/Studio/7.0/Packs/Atmel/ATmega_DFP/1.3.300/gcc/dev/atmega324pa/avr5/crtatmega324pa.o
LOAD i2cmaster.o
LOAD main.o
LOAD MCP23017.o
LOAD MIDI.o
LOAD PedalCom.o
LOAD RotaryEncoder.o
LOAD SP10281_3x7segment.o
LOAD System.o
LOAD Timer.o
LOAD UART.o
LOAD UI.o
LOAD util.o
START GROUP
LOAD c:/program files (x86)/atmel/studio/7.0/toolchain/avr8/avr8-gnu-toolchain/bin/../lib/gcc/avr/5.4.0/../../../../avr/lib/avr5\libm.a
END GROUP
LOAD c:/program files (x86)/atmel/studio/7.0/toolchain/avr8/avr8-gnu-toolchain/bin/../lib/gcc/avr/5.4.0/avr5\libgcc.a
LOAD c:/program files (x86)/atmel/studio/7.0/toolchain/avr8/avr8-gnu-toolchain/bin/../lib/gcc/avr/5.4.0/../../../../avr/lib/avr5\libm.a
START GROUP
LOAD c:/program files (x86)/atmel/studio/7.0/toolchain/avr8/avr8-gnu-toolchain/bin/../lib/gcc/avr/5.4.0/avr5\libgcc.a
LOAD c:/program files (x86)/atmel/studio/7.0/toolchain/avr8/avr8-gnu-toolchain/bin/../lib/gcc/avr/5.4.0/../../../../avr/lib/avr5\libm.a
LOAD c:/program files (x86)/atmel/studio/7.0/toolchain/avr8/avr8-gnu-toolchain/bin/../lib/gcc/avr/5.4.0/../../../../avr/lib/avr5\libc.a
LOAD C:/Program Files (x86)/Atmel/Studio/7.0/Packs/Atmel/ATmega_DFP/1.3.300/gcc/dev/atmega324pa/avr5\libatmega324pa.a
END GROUP
                0x00020000                __TEXT_REGION_LENGTH__ = DEFINED (__TEXT_REGION_LENGTH__)?__TEXT_REGION_LENGTH__:0x20000
                0x0000ffa0                __DATA_REGION_LENGTH__ = DEFINED (__DATA_REGION_LENGTH__)?__DATA_REGION_LENGTH__:0xffa0
                0x00010000                __EEPROM_REGION_LENGTH__ = DEFINED (__EEPROM_REGION_LENGTH__)?__EEPROM_REGION_LENGTH__:0x10000
                [0x00000003]                __FUSE_REGION_LENGTH__ = DEFINED (__FUSE_REGION_LENGTH__)?__FUSE_REGION_LENGTH__:0x400
                0x00000400                __LOCK_REGION_LENGTH__ = DEFINED (__LOCK_REGION_LENGTH__)?__LOCK_REGION_LENGTH__:0x400
                0x00000400                __SIGNATURE_REGION_LENGTH__ = DEFINED (__SIGNATURE_REGION_LENGTH__)?__SIGNATURE_REGION_LENGTH__:0x400
                0x00000400                __USER_SIGNATURE_REGION_LENGTH__ = DEFINED (__USER_SIGNATURE_REGION_LENGTH__)?__USER_SIGNATURE_REGION_LENGTH__:0x400

.hash
 *(.hash)

.dynsym
 *(.dynsym)

.dynstr
 *(.dynstr)

.gnu.version
 *(.gnu.version)

.gnu.version_d
 *(.gnu.version_d)

.gnu.version_r
 *(.gnu.version_r)

.rel.init
 *(.rel.init)

.rela.init
 *(.rela.init)

.rel.text
 *(.rel.text)
 *(.rel.text.*)
 *(.rel.gnu.linkonce.t*)

.rela.text
 *(.rela.text)
 *(.rela.text.*)
 *(.rela.gnu.linkonce.t*)

.rel.fini
 *(.rel.fini)

.rela.fini
 *(.rela.fini)

.rel.rodata
 *(.rel.rodata)
 *(.rel.rodata.*)
 *(.rel.gnu.linkonce.r*)

.rela.rodata
 *(.rela.rodata)
 *(.rela.rodata.*)
 *(.rela.gnu.linkonce.r*)

.rel.data
 *(.rel.data)
 *(.rel.data.*)
 *(.rel.gnu.linkonce.d*)

.rela.data
 *(.rela.data)
 *(.rela.data.*)
 *(.rela.gnu.linkonce.d*)

.rel.ctors
 *(.rel.ctors)

.rela.ctors
 *(.rela.ctors)

.rel.dtors
 *(.rel.dtors)

.rela.dtors
 *(.rela.dtors)

.rel.got
 *(.rel.got)

.rela.got
 *(.rela.got)

.rel.bss
 *(.rel.bss)

.rela.bss
 *(.rela.bss)

.rel.plt
 *(.rel.plt)

.rela.plt
 *(.rela.plt)

.text           0x00000000     0x231e
 *(.vectors)
 .vectors       0x00000000       0x7c C:/Program Files (x86)/Atmel/Studio/7.0/Packs/Atmel/ATmega_DFP/1.3.300/gcc/dev/atmega324pa/avr5/crtatmega324pa.o
                0x00000000                __vector_default
                0x00000000                __vectors
 *(.vectors)
 *(.progmem.gcc*)
 .progmem.gcc_sw_table._Z31System_HandleRotaryEncoderInputv
                0x0000007c       0x20 System.o
 .progmem.gcc_sw_table._Z10System_Runv
                0x0000009c       0x20 System.o
                0x000000bc                . = ALIGN (0x2)
                0x000000bc                __trampolines_start = .
 *(.trampolines)
 .trampolines   0x000000bc        0x0 linker stubs
 *(.trampolines*)
                0x000000bc                __trampolines_end = .
 *libprintf_flt.a:*(.progmem.data)
 *libc.a:*(.progmem.data)
 *(.progmem*)
                0x000000bc                . = ALIGN (0x2)
 *(.jumptables)
 *(.jumptables*)
 *(.lowtext)
 *(.lowtext*)
                0x000000bc                __ctors_start = .
 *(.ctors)
 .ctors         0x000000bc        0x2 UI.o
                0x000000be                __ctors_end = .
                0x000000be                __dtors_start = .
 *(.dtors)
                0x000000be                __dtors_end = .
 SORT(*)(.ctors)
 SORT(*)(.dtors)
 *(.init0)
 .init0         0x000000be        0x0 C:/Program Files (x86)/Atmel/Studio/7.0/Packs/Atmel/ATmega_DFP/1.3.300/gcc/dev/atmega324pa/avr5/crtatmega324pa.o
                0x000000be                __init
 *(.init0)
 *(.init1)
 *(.init1)
 *(.init2)
 .init2         0x000000be        0xc C:/Program Files (x86)/Atmel/Studio/7.0/Packs/Atmel/ATmega_DFP/1.3.300/gcc/dev/atmega324pa/avr5/crtatmega324pa.o
 *(.init2)
 *(.init3)
 *(.init3)
 *(.init4)
 .init4         0x000000ca       0x16 c:/program files (x86)/atmel/studio/7.0/toolchain/avr8/avr8-gnu-toolchain/bin/../lib/gcc/avr/5.4.0/avr5\libgcc.a(_copy_data.o)
                0x000000ca                __do_copy_data
 .init4         0x000000e0       0x10 c:/program files (x86)/atmel/studio/7.0/toolchain/avr8/avr8-gnu-toolchain/bin/../lib/gcc/avr/5.4.0/avr5\libgcc.a(_clear_bss.o)
                0x000000e0                __do_clear_bss
 *(.init4)
 *(.init5)
 *(.init5)
 *(.init6)
 .init6         0x000000f0       0x16 c:/program files (x86)/atmel/studio/7.0/toolchain/avr8/avr8-gnu-toolchain/bin/../lib/gcc/avr/5.4.0/avr5\libgcc.a(_ctors.o)
                0x000000f0                __do_global_ctors
 *(.init6)
 *(.init7)
 *(.init7)
 *(.init8)
 *(.init8)
 *(.init9)
 .init9         0x00000106        0x8 C:/Program Files (x86)/Atmel/Studio/7.0/Packs/Atmel/ATmega_DFP/1.3.300/gcc/dev/atmega324pa/avr5/crtatmega324pa.o
 *(.init9)
 *(.text)
 .text          0x0000010e        0x4 C:/Program Files (x86)/Atmel/Studio/7.0/Packs/Atmel/ATmega_DFP/1.3.300/gcc/dev/atmega324pa/avr5/crtatmega324pa.o
                0x0000010e                __vector_1
                0x0000010e                __vector_24
                0x0000010e                __vector_12
                0x0000010e                __bad_interrupt
                0x0000010e                __vector_6
                0x0000010e                __vector_23
                0x0000010e                __vector_30
                0x0000010e                __vector_25
                0x0000010e                __vector_11
                0x0000010e                __vector_13
                0x0000010e                __vector_17
                0x0000010e                __vector_19
                0x0000010e                __vector_7
                0x0000010e                __vector_27
                0x0000010e                __vector_4
                0x0000010e                __vector_9
                0x0000010e                __vector_2
                0x0000010e                __vector_15
                0x0000010e                __vector_8
                0x0000010e                __vector_26
                0x0000010e                __vector_14
                0x0000010e                __vector_10
                0x0000010e                __vector_18
                0x00000112                . = ALIGN (0x2)
 *(.text.*)
 .text._Z8i2c_initv
                0x00000112        0xc i2cmaster.o
                0x00000112                _Z8i2c_initv
 .text._Z9i2c_starth
                0x0000011e       0x4e i2cmaster.o
                0x0000011e                _Z9i2c_starth
 .text._Z8i2c_stopv
                0x0000016c       0x12 i2cmaster.o
                0x0000016c                _Z8i2c_stopv
 .text._Z9i2c_writeh
                0x0000017e       0x24 i2cmaster.o
                0x0000017e                _Z9i2c_writeh
 .text._Z11i2c_readNakv
                0x000001a2       0x16 i2cmaster.o
                0x000001a2                _Z11i2c_readNakv
 .text.main     0x000001b8      0x140 main.o
                0x000001b8                main
 .text._Z17MCP23017_WriteReghhh
                0x000002f8       0x26 MCP23017.o
                0x000002f8                _Z17MCP23017_WriteReghhh
 .text._Z16MCP23017_ReadReghh
                0x0000031e       0x2e MCP23017.o
                0x0000031e                _Z16MCP23017_ReadReghh
 .text._ZN10MCP_OutputC2Ev
                0x0000034c        0x2 MCP23017.o
                0x0000034c                _ZN10MCP_OutputC2Ev
                0x0000034c                _ZN10MCP_OutputC1Ev
 .text._ZN10MCP_Output8getStateEv
                0x0000034e        0x6 MCP23017.o
                0x0000034e                _ZN10MCP_Output8getStateEv
 .text._ZN10MCP_Output3SetEv
                0x00000354       0x7a MCP23017.o
                0x00000354                _ZN10MCP_Output3SetEv
 .text._ZN10MCP_Output5ClearEv
                0x000003ce       0x7a MCP23017.o
                0x000003ce                _ZN10MCP_Output5ClearEv
 .text._ZN10MCP_OutputC2Eh13MCP23017_Port12MCP23017_Pin
                0x00000448       0x48 MCP23017.o
                0x00000448                _ZN10MCP_OutputC2Eh13MCP23017_Port12MCP23017_Pin
                0x00000448                _ZN10MCP_OutputC1Eh13MCP23017_Port12MCP23017_Pin
 .text._ZN10MCP_Output10AutoToggleEv
                0x00000490       0x44 MCP23017.o
                0x00000490                _ZN10MCP_Output10AutoToggleEv
 .text._ZN10MCP_Output18SetAutoToggleSpeedEj
                0x000004d4       0x14 MCP23017.o
                0x000004d4                _ZN10MCP_Output18SetAutoToggleSpeedEj
 .text._ZN10MCP_Output17PerformAutoToggleEh
                0x000004e8       0x3e MCP23017.o
                0x000004e8                _ZN10MCP_Output17PerformAutoToggleEh
 .text._Z20MIDI_ReceiveIncomingv
                0x00000526       0x76 MIDI.o
                0x00000526                _Z20MIDI_ReceiveIncomingv
 .text._Z26MIDI_TransmitProgramChangeh
                0x0000059c       0x2e MIDI.o
                0x0000059c                _Z26MIDI_TransmitProgramChangeh
 .text._Z20PedalCom_RxAvailablev
                0x000005ca       0x12 PedalCom.o
                0x000005ca                _Z20PedalCom_RxAvailablev
 .text._Z20PedalCom_TxAvailablev
                0x000005dc       0x12 PedalCom.o
                0x000005dc                _Z20PedalCom_TxAvailablev
 .text._Z21PedalCom_FlushTxQueuev
                0x000005ee       0x24 PedalCom.o
                0x000005ee                _Z21PedalCom_FlushTxQueuev
 .text._Z23PedalCom_HandleReceivedv
                0x00000612       0x62 PedalCom.o
                0x00000612                _Z23PedalCom_HandleReceivedv
 .text._Z21PedalCom_QueueCommand3CMDhPh
                0x00000674       0xb2 PedalCom.o
                0x00000674                _Z21PedalCom_QueueCommand3CMDhPh
 .text._Z19PedalCom_PutCommandv
                0x00000726      0x138 PedalCom.o
                0x00000726                _Z19PedalCom_PutCommandv
 .text._Z26PedalCom_PrepareRetransmitv
                0x0000085e       0x2c PedalCom.o
                0x0000085e                _Z26PedalCom_PrepareRetransmitv
 .text._Z16PedalCom_Receivev
                0x0000088a      0x1d0 PedalCom.o
                0x0000088a                _Z16PedalCom_Receivev
 .text._Z12Select_RX_TXh
                0x00000a5a       0x10 PedalCom.o
                0x00000a5a                _Z12Select_RX_TXh
 .text._Z13PedalCom_Initv
                0x00000a6a       0x18 PedalCom.o
                0x00000a6a                _Z13PedalCom_Initv
 .text._Z17PedalCom_Transmitv
                0x00000a82        0xc PedalCom.o
                0x00000a82                _Z17PedalCom_Transmitv
 .text.__vector_22
                0x00000a8e       0x4a PedalCom.o
                0x00000a8e                __vector_22
 .text._Z18RotaryEncoder_Initv
                0x00000ad8       0x28 RotaryEncoder.o
                0x00000ad8                _Z18RotaryEncoder_Initv
 .text._Z23RotaryEncoder_IsPressedv
                0x00000b00        0xa RotaryEncoder.o
                0x00000b00                _Z23RotaryEncoder_IsPressedv
 .text._Z29RotaryEncoder_EnableInterruptv
                0x00000b0a       0x12 RotaryEncoder.o
                0x00000b0a                _Z29RotaryEncoder_EnableInterruptv
 .text.__vector_5
                0x00000b1c       0x42 RotaryEncoder.o
                0x00000b1c                __vector_5
 .text.__vector_3
                0x00000b5e       0x3c RotaryEncoder.o
                0x00000b5e                __vector_3
 .text._Z14SP10281_Updatev
                0x00000b9a       0x48 SP10281_3x7segment.o
                0x00000b9a                _Z14SP10281_Updatev
 .text._Z19SP10281_WriteSinglehch
                0x00000be2       0x34 SP10281_3x7segment.o
                0x00000be2                _Z19SP10281_WriteSinglehch
 .text._Z16SP10281_WriteAllccchhh
                0x00000c16       0x3a SP10281_3x7segment.o
                0x00000c16                _Z16SP10281_WriteAllccchhh
 .text._Z19SP10281_WriteNumbers
                0x00000c50       0x70 SP10281_3x7segment.o
                0x00000c50                _Z19SP10281_WriteNumbers
 .text._Z12SP10281_Initv
                0x00000cc0       0x14 SP10281_3x7segment.o
                0x00000cc0                _Z12SP10281_Initv
 .text._Z30System_HandleTempSelectTimeoutv
                0x00000cd4       0xb4 System.o
                0x00000cd4                _Z30System_HandleTempSelectTimeoutv
 .text._Z26System_HandleMarkSelectionv
                0x00000d88       0x2e System.o
                0x00000d88                _Z26System_HandleMarkSelectionv
 .text._Z25System_HandlePedalCommand3CMDhPh
                0x00000db6      0x106 System.o
                0x00000db6                _Z25System_HandlePedalCommand3CMDhPh
 .text._Z30System_HandleMIDIProgramChangev
                0x00000ebc       0x1e System.o
                0x00000ebc                _Z30System_HandleMIDIProgramChangev
 .text._Z20System_UpdateUI_LEDsv
                0x00000eda       0xca System.o
                0x00000eda                _Z20System_UpdateUI_LEDsv
 .text._Z31System_HandleRotaryEncoderInputv
                0x00000fa4      0x432 System.o
                0x00000fa4                _Z31System_HandleRotaryEncoderInputv
 .text._Z19System_ChangePresetv
                0x000013d6       0xba System.o
                0x000013d6                _Z19System_ChangePresetv
 .text._Z21System_UpdateLoopCtrlv
                0x00001490       0x82 System.o
                0x00001490                _Z21System_UpdateLoopCtrlv
 .text._Z10System_Runv
                0x00001512      0x4c8 System.o
                0x00001512                _Z10System_Runv
 .text._Z11Timer0_Initv
                0x000019da       0x1e Timer.o
                0x000019da                _Z11Timer0_Initv
 .text._Z13Timer0_ms2cntm
                0x000019f8       0x1e Timer.o
                0x000019f8                _Z13Timer0_ms2cntm
 .text.__vector_16
                0x00001a16      0x200 Timer.o
                0x00001a16                __vector_16
 .text._Z10UART0_Initjhh
                0x00001c16       0xcc UART.o
                0x00001c16                _Z10UART0_Initjhh
 .text._Z13UART0_GetCharv
                0x00001ce2       0x36 UART.o
                0x00001ce2                _Z13UART0_GetCharv
 .text._Z15UART0_Availablev
                0x00001d18       0x16 UART.o
                0x00001d18                _Z15UART0_Availablev
 .text._Z15UART0_QueueCharh
                0x00001d2e       0x2a UART.o
                0x00001d2e                _Z15UART0_QueueCharh
 .text._Z14UART0_PutQueuev
                0x00001d58        0xc UART.o
                0x00001d58                _Z14UART0_PutQueuev
 .text._Z18UART0_QueueIsEmptyv
                0x00001d64       0x10 UART.o
                0x00001d64                _Z18UART0_QueueIsEmptyv
 .text.__vector_20
                0x00001d74       0x56 UART.o
                0x00001d74                __vector_20
 .text.__vector_21
                0x00001dca       0x54 UART.o
                0x00001dca                __vector_21
 .text._Z10UART1_Initjhh
                0x00001e1e       0xc6 UART.o
                0x00001e1e                _Z10UART1_Initjhh
 .text._Z13UART1_GetCharv
                0x00001ee4       0x36 UART.o
                0x00001ee4                _Z13UART1_GetCharv
 .text._Z13UART1_PutCharh
                0x00001f1a       0x2a UART.o
                0x00001f1a                _Z13UART1_PutCharh
 .text._Z15UART1_PutStringPKc
                0x00001f44       0x1e UART.o
                0x00001f44                _Z15UART1_PutStringPKc
 .text._Z15UART1_Availablev
                0x00001f62       0x16 UART.o
                0x00001f62                _Z15UART1_Availablev
 .text.__vector_28
                0x00001f78       0x56 UART.o
                0x00001f78                __vector_28
 .text.__vector_29
                0x00001fce       0x54 UART.o
                0x00001fce                __vector_29
 .text._Z7UI_Initv
                0x00002022      0x118 UI.o
                0x00002022                _Z7UI_Initv
 .text._GLOBAL__sub_I_ModeRunLED
                0x0000213a       0x96 UI.o
 .text._Z12Util_Bit2Inth
                0x000021d0       0x16 util.o
                0x000021d0                _Z12Util_Bit2Inth
 .text.libgcc.div
                0x000021e6       0x28 c:/program files (x86)/atmel/studio/7.0/toolchain/avr8/avr8-gnu-toolchain/bin/../lib/gcc/avr/5.4.0/avr5\libgcc.a(_divmodhi4.o)
                0x000021e6                _div
                0x000021e6                __divmodhi4
 .text.libgcc.div
                0x0000220e       0x44 c:/program files (x86)/atmel/studio/7.0/toolchain/avr8/avr8-gnu-toolchain/bin/../lib/gcc/avr/5.4.0/avr5\libgcc.a(_udivmodsi4.o)
                0x0000220e                __udivmodsi4
 .text.libgcc   0x00002252        0xc c:/program files (x86)/atmel/studio/7.0/toolchain/avr8/avr8-gnu-toolchain/bin/../lib/gcc/avr/5.4.0/avr5\libgcc.a(_tablejump2.o)
                0x00002252                __tablejump2__
 .text.libgcc.mul
                0x0000225e       0x16 c:/program files (x86)/atmel/studio/7.0/toolchain/avr8/avr8-gnu-toolchain/bin/../lib/gcc/avr/5.4.0/avr5\libgcc.a(_muluhisi3.o)
                0x0000225e                __muluhisi3
 .text.libgcc.div
                0x00002274       0x28 c:/program files (x86)/atmel/studio/7.0/toolchain/avr8/avr8-gnu-toolchain/bin/../lib/gcc/avr/5.4.0/avr5\libgcc.a(_udivmodhi4.o)
                0x00002274                __udivmodhi4
 .text.libgcc.mul
                0x0000229c       0x1e c:/program files (x86)/atmel/studio/7.0/toolchain/avr8/avr8-gnu-toolchain/bin/../lib/gcc/avr/5.4.0/avr5\libgcc.a(_umulhisi3.o)
                0x0000229c                __umulhisi3
 .text.avr-libc
                0x000022ba       0x20 C:/Program Files (x86)/Atmel/Studio/7.0/Packs/Atmel/ATmega_DFP/1.3.300/gcc/dev/atmega324pa/avr5\libatmega324pa.a(eerd_block.o)
                0x000022ba                eeprom_read_block
                0x000022be                eeprom_read_blraw
 .text.avr-libc
                0x000022da       0x10 C:/Program Files (x86)/Atmel/Studio/7.0/Packs/Atmel/ATmega_DFP/1.3.300/gcc/dev/atmega324pa/avr5\libatmega324pa.a(eerd_byte.o)
                0x000022da                eeprom_read_byte
 .text.avr-libc
                0x000022ea       0x14 C:/Program Files (x86)/Atmel/Studio/7.0/Packs/Atmel/ATmega_DFP/1.3.300/gcc/dev/atmega324pa/avr5\libatmega324pa.a(eewr_block.o)
                0x000022ea                eeprom_write_block
 .text.avr-libc
                0x000022fe       0x1c C:/Program Files (x86)/Atmel/Studio/7.0/Packs/Atmel/ATmega_DFP/1.3.300/gcc/dev/atmega324pa/avr5\libatmega324pa.a(eewr_byte.o)
                0x000022fe                eeprom_write_byte
                0x00002300                eeprom_write_r18
                0x0000231a                . = ALIGN (0x2)
 *(.fini9)
 .fini9         0x0000231a        0x0 c:/program files (x86)/atmel/studio/7.0/toolchain/avr8/avr8-gnu-toolchain/bin/../lib/gcc/avr/5.4.0/avr5\libgcc.a(_exit.o)
                0x0000231a                _exit
                0x0000231a                exit
 *(.fini9)
 *(.fini8)
 *(.fini8)
 *(.fini7)
 *(.fini7)
 *(.fini6)
 *(.fini6)
 *(.fini5)
 *(.fini5)
 *(.fini4)
 *(.fini4)
 *(.fini3)
 *(.fini3)
 *(.fini2)
 *(.fini2)
 *(.fini1)
 *(.fini1)
 *(.fini0)
 .fini0         0x0000231a        0x4 c:/program files (x86)/atmel/studio/7.0/toolchain/avr8/avr8-gnu-toolchain/bin/../lib/gcc/avr/5.4.0/avr5\libgcc.a(_exit.o)
 *(.fini0)
                0x0000231e                _etext = .

.data           0x00800100       0xd2 load address 0x0000231e
                0x00800100                PROVIDE (__data_start, .)
 *(.data)
 *(.data*)
 .data._ZN10MCP_Output18AutoToggle_TimeoutE
                0x00800100        0x2 MCP23017.o
                0x00800100                _ZN10MCP_Output18AutoToggle_TimeoutE
 .data.TX_CommandQueue
                0x00800102       0x40 PedalCom.o
                0x00800102                TX_CommandQueue
 .data.PedalCom_ConnectionOpen
                0x00800142        0x1 PedalCom.o
                0x00800142                PedalCom_ConnectionOpen
 .data.PedalCom_HeartbeatOvfCnt
                0x00800143        0x2 PedalCom.o
                0x00800143                PedalCom_HeartbeatOvfCnt
 .data._ZL18SP10281_DigitTable
                0x00800145       0x80 SP10281_3x7segment.o
 .data.LastLoopModePreset
                0x008001c5        0x4 System.o
                0x008001c5                LastLoopModePreset
 .data.LoopModePreset
                0x008001c9        0x4 System.o
                0x008001c9                LoopModePreset
 *(.gnu.linkonce.d*)
 *(.rodata)
 *(.rodata*)
 .rodata.str1.1
                0x008001cd        0x5 System.o
 *(.gnu.linkonce.r*)
                0x008001d2                . = ALIGN (0x2)
                0x008001d2                _edata = .
                0x008001d2                PROVIDE (__data_end, .)

.bss            0x008001d2      0x204
                0x008001d2                PROVIDE (__bss_start, .)
 *(.bss)
 *(.bss*)
 .bss._ZN10MCP_Output16AutoToggle_PortBE
                0x008001d2        0x1 MCP23017.o
                0x008001d2                _ZN10MCP_Output16AutoToggle_PortBE
 .bss._ZN10MCP_Output16AutoToggle_PortAE
                0x008001d3        0x1 MCP23017.o
                0x008001d3                _ZN10MCP_Output16AutoToggle_PortAE
 .bss._ZN10MCP_Output15AutoToggle_FlagE
                0x008001d4        0x1 MCP23017.o
                0x008001d4                _ZN10MCP_Output15AutoToggle_FlagE
 .bss._ZN10MCP_Output17AutoToggle_OvfCntE
                0x008001d5        0x2 MCP23017.o
                0x008001d5                _ZN10MCP_Output17AutoToggle_OvfCntE
 .bss._ZZ20MIDI_ReceiveIncomingvE10RX_ByteCnt
                0x008001d7        0x1 MIDI.o
 .bss.MIDI_ProgramChangeFlag
                0x008001d8        0x1 MIDI.o
                0x008001d8                MIDI_ProgramChangeFlag
 .bss.MIDI_ReceivedProgram
                0x008001d9        0x1 MIDI.o
                0x008001d9                MIDI_ReceivedProgram
 .bss.MIDI_TxBuffer
                0x008001da        0x3 MIDI.o
                0x008001da                MIDI_TxBuffer
 .bss.MIDI_RxBuffer
                0x008001dd        0x3 MIDI.o
                0x008001dd                MIDI_RxBuffer
 .bss._ZZ16PedalCom_ReceivevE10RX_ByteCnt
                0x008001e0        0x1 PedalCom.o
 .bss.RetransmitCnt
                0x008001e1        0x1 PedalCom.o
                0x008001e1                RetransmitCnt
 .bss.TxTail    0x008001e2        0x1 PedalCom.o
                0x008001e2                TxTail
 .bss.TxHead    0x008001e3        0x1 PedalCom.o
                0x008001e3                TxHead
 .bss.RxTail    0x008001e4        0x1 PedalCom.o
                0x008001e4                RxTail
 .bss.RxHead    0x008001e5        0x1 PedalCom.o
                0x008001e5                RxHead
 .bss.RX_CommandQueue
                0x008001e6       0x20 PedalCom.o
                0x008001e6                RX_CommandQueue
 .bss.RX_Buffer
                0x00800206       0x10 PedalCom.o
                0x00800206                RX_Buffer
 .bss.PedalCom_HeartbeatFlag
                0x00800216        0x1 PedalCom.o
                0x00800216                PedalCom_HeartbeatFlag
 .bss.PedalCom_FullFrameTimeoutFlag
                0x00800217        0x1 PedalCom.o
                0x00800217                PedalCom_FullFrameTimeoutFlag
 .bss.PedalCom_FullFrameTimeoutOvfCnt
                0x00800218        0x2 PedalCom.o
                0x00800218                PedalCom_FullFrameTimeoutOvfCnt
 .bss.PedalCom_ResponseTimeoutFlag
                0x0080021a        0x1 PedalCom.o
                0x0080021a                PedalCom_ResponseTimeoutFlag
 .bss.PedalCom_ResponseTimeoutOvfCnt
                0x0080021b        0x2 PedalCom.o
                0x0080021b                PedalCom_ResponseTimeoutOvfCnt
 .bss.PedalCom_DelayTXOvfCnt
                0x0080021d        0x1 PedalCom.o
                0x0080021d                PedalCom_DelayTXOvfCnt
 .bss.PedalCom_DelayTxFlag
                0x0080021e        0x1 PedalCom.o
                0x0080021e                PedalCom_DelayTxFlag
 .bss.RotEnc_State
                0x0080021f        0x1 RotaryEncoder.o
                0x0080021f                RotEnc_State
 .bss.RotaryEncoder_OvfCnt
                0x00800220        0x2 RotaryEncoder.o
                0x00800220                RotaryEncoder_OvfCnt
 .bss._ZZ14SP10281_UpdatevE3tmp
                0x00800222        0x1 SP10281_3x7segment.o
 .bss.SP10281_OvfFlag
                0x00800223        0x1 SP10281_3x7segment.o
                0x00800223                SP10281_OvfFlag
 .bss.SP10281_OvfCnt
                0x00800224        0x1 SP10281_3x7segment.o
                0x00800224                SP10281_OvfCnt
 .bss.SP10281_DigitCnt
                0x00800225        0x1 SP10281_3x7segment.o
                0x00800225                SP10281_DigitCnt
 .bss.SP10281_DigitData
                0x00800226        0x3 SP10281_3x7segment.o
                0x00800226                SP10281_DigitData
 .bss.LastUserEditSelection
                0x00800229        0x1 System.o
                0x00800229                LastUserEditSelection
 .bss.UserEditSelection
                0x0080022a        0x1 System.o
                0x0080022a                UserEditSelection
 .bss.PresetTable
                0x0080022b       0x20 System.o
                0x0080022b                PresetTable
 .bss.LastTempSelectMidiPC
                0x0080024b        0x1 System.o
                0x0080024b                LastTempSelectMidiPC
 .bss.TempSelectMidiPC
                0x0080024c        0x1 System.o
                0x0080024c                TempSelectMidiPC
 .bss.SetMidiEdit
                0x0080024d        0x1 System.o
                0x0080024d                SetMidiEdit
 .bss.LastSystemUIMode
                0x0080024e        0x1 System.o
                0x0080024e                LastSystemUIMode
 .bss.SystemUIMode
                0x0080024f        0x1 System.o
                0x0080024f                SystemUIMode
 .bss.System_MidiChannel
                0x00800250        0x1 System.o
                0x00800250                System_MidiChannel
 .bss.LastTempSelectMidiChannel
                0x00800251        0x1 System.o
                0x00800251                LastTempSelectMidiChannel
 .bss.TempSelectMidiChannel
                0x00800252        0x1 System.o
                0x00800252                TempSelectMidiChannel
 .bss.SystemRunMode
                0x00800253        0x1 System.o
                0x00800253                SystemRunMode
 .bss.LastTempSelectPreset
                0x00800254        0x1 System.o
                0x00800254                LastTempSelectPreset
 .bss.TempSelectPreset
                0x00800255        0x1 System.o
                0x00800255                TempSelectPreset
 .bss.LastActivePreset
                0x00800256        0x1 System.o
                0x00800256                LastActivePreset
 .bss.ActivePreset
                0x00800257        0x1 System.o
                0x00800257                ActivePreset
 .bss.LastSystemState
                0x00800258        0x1 System.o
                0x00800258                LastSystemState
 .bss.SystemState
                0x00800259        0x1 System.o
                0x00800259                SystemState
 .bss.System_MarkSelectionFlag
                0x0080025a        0x1 System.o
                0x0080025a                System_MarkSelectionFlag
 .bss.System_MarkSelectionOvfCnt
                0x0080025b        0x2 System.o
                0x0080025b                System_MarkSelectionOvfCnt
 .bss.System_TempSelectFlag
                0x0080025d        0x1 System.o
                0x0080025d                System_TempSelectFlag
 .bss.System_TempSelectOvfCnt
                0x0080025e        0x2 System.o
                0x0080025e                System_TempSelectOvfCnt
 .bss._ZL17UART1_LastRxError
                0x00800260        0x1 UART.o
 .bss._ZL12UART1_RxTail
                0x00800261        0x1 UART.o
 .bss._ZL12UART1_RxHead
                0x00800262        0x1 UART.o
 .bss._ZL12UART1_TxTail
                0x00800263        0x1 UART.o
 .bss._ZL12UART1_TxHead
                0x00800264        0x1 UART.o
 .bss._ZL11UART1_RxBuf
                0x00800265       0x40 UART.o
 .bss._ZL11UART1_TxBuf
                0x008002a5       0x40 UART.o
 .bss._ZL17UART0_LastRxError
                0x008002e5        0x1 UART.o
 .bss._ZL12UART0_RxTail
                0x008002e6        0x1 UART.o
 .bss._ZL12UART0_RxHead
                0x008002e7        0x1 UART.o
 .bss._ZL12UART0_TxTail
                0x008002e8        0x1 UART.o
 .bss._ZL12UART0_TxHead
                0x008002e9        0x1 UART.o
 .bss._ZL11UART0_RxBuf
                0x008002ea       0x40 UART.o
 .bss._ZL11UART0_TxBuf
                0x0080032a       0x40 UART.o
 .bss.CtrlSwitchRelays
                0x0080036a       0x10 UI.o
                0x0080036a                CtrlSwitchRelays
 .bss.LoopRelays
                0x0080037a       0x20 UI.o
                0x0080037a                LoopRelays
 .bss.CtrlSwitchLEDs
                0x0080039a       0x10 UI.o
                0x0080039a                CtrlSwitchLEDs
 .bss.LoopLEDs  0x008003aa       0x20 UI.o
                0x008003aa                LoopLEDs
 .bss.ModeEditMidiLED
                0x008003ca        0x4 UI.o
                0x008003ca                ModeEditMidiLED
 .bss.ModeEditPresetLED
                0x008003ce        0x4 UI.o
                0x008003ce                ModeEditPresetLED
 .bss.ModeRunLED
                0x008003d2        0x4 UI.o
                0x008003d2                ModeRunLED
 *(COMMON)
                0x008003d6                PROVIDE (__bss_end, .)
                0x0000231e                __data_load_start = LOADADDR (.data)
                0x000023f0                __data_load_end = (__data_load_start + SIZEOF (.data))

.noinit         0x008003d6        0x0
                [!provide]                PROVIDE (__noinit_start, .)
 *(.noinit*)
                [!provide]                PROVIDE (__noinit_end, .)
                0x008003d6                _end = .
                [!provide]                PROVIDE (__heap_start, .)

.eeprom         0x00810000        0x0
 *(.eeprom*)
                0x00810000                __eeprom_end = .

.fuse
 *(.fuse)
 *(.lfuse)
 *(.hfuse)
 *(.efuse)

.lock
 *(.lock*)

.signature
 *(.signature*)

.user_signatures
 *(.user_signatures*)

.stab
 *(.stab)

.stabstr
 *(.stabstr)

.stab.excl
 *(.stab.excl)

.stab.exclstr
 *(.stab.exclstr)

.stab.index
 *(.stab.index)

.stab.indexstr
 *(.stab.indexstr)

.comment        0x00000000       0x30
 *(.comment)
 .comment       0x00000000       0x30 i2cmaster.o
                                 0x31 (size before relaxing)
 .comment       0x00000030       0x31 main.o
 .comment       0x00000030       0x31 MCP23017.o
 .comment       0x00000030       0x31 MIDI.o
 .comment       0x00000030       0x31 PedalCom.o
 .comment       0x00000030       0x31 RotaryEncoder.o
 .comment       0x00000030       0x31 SP10281_3x7segment.o
 .comment       0x00000030       0x31 System.o
 .comment       0x00000030       0x31 Timer.o
 .comment       0x00000030       0x31 UART.o
 .comment       0x00000030       0x31 UI.o
 .comment       0x00000030       0x31 util.o

.note.gnu.avr.deviceinfo
                0x00000000       0x40
 .note.gnu.avr.deviceinfo
                0x00000000       0x40 C:/Program Files (x86)/Atmel/Studio/7.0/Packs/Atmel/ATmega_DFP/1.3.300/gcc/dev/atmega324pa/avr5/crtatmega324pa.o

.note.gnu.build-id
 *(.note.gnu.build-id)

.debug
 *(.debug)

.line
 *(.line)

.debug_srcinfo
 *(.debug_srcinfo)

.debug_sfnames
 *(.debug_sfnames)

.debug_aranges  0x00000000      0x450
 *(.debug_aranges)
 .debug_aranges
                0x00000000       0x58 i2cmaster.o
 .debug_aranges
                0x00000058       0x20 main.o
 .debug_aranges
                0x00000078       0x88 MCP23017.o
 .debug_aranges
                0x00000100       0x28 MIDI.o
 .debug_aranges
                0x00000128       0x78 PedalCom.o
 .debug_aranges
                0x000001a0       0x40 RotaryEncoder.o
 .debug_aranges
                0x000001e0       0x40 SP10281_3x7segment.o
 .debug_aranges
                0x00000220       0x68 System.o
 .debug_aranges
                0x00000288       0x30 Timer.o
 .debug_aranges
                0x000002b8       0xc8 UART.o
 .debug_aranges
                0x00000380       0x28 UI.o
 .debug_aranges
                0x000003a8       0x28 util.o
 .debug_aranges
                0x000003d0       0x20 C:/Program Files (x86)/Atmel/Studio/7.0/Packs/Atmel/ATmega_DFP/1.3.300/gcc/dev/atmega324pa/avr5\libatmega324pa.a(eerd_block.o)
 .debug_aranges
                0x000003f0       0x20 C:/Program Files (x86)/Atmel/Studio/7.0/Packs/Atmel/ATmega_DFP/1.3.300/gcc/dev/atmega324pa/avr5\libatmega324pa.a(eerd_byte.o)
 .debug_aranges
                0x00000410       0x20 C:/Program Files (x86)/Atmel/Studio/7.0/Packs/Atmel/ATmega_DFP/1.3.300/gcc/dev/atmega324pa/avr5\libatmega324pa.a(eewr_block.o)
 .debug_aranges
                0x00000430       0x20 C:/Program Files (x86)/Atmel/Studio/7.0/Packs/Atmel/ATmega_DFP/1.3.300/gcc/dev/atmega324pa/avr5\libatmega324pa.a(eewr_byte.o)

.debug_pubnames
 *(.debug_pubnames)

.debug_info     0x00000000     0x4ccb
 *(.debug_info .gnu.linkonce.wi.*)
 .debug_info    0x00000000      0x6cc C:/Program Files (x86)/Atmel/Studio/7.0/Packs/Atmel/ATmega_DFP/1.3.300/gcc/dev/atmega324pa/avr5/crtatmega324pa.o
 .debug_info    0x000006cc      0x1d5 i2cmaster.o
 .debug_info    0x000008a1      0x7d8 main.o
 .debug_info    0x00001079      0xa63 MCP23017.o
 .debug_info    0x00001adc      0x226 MIDI.o
 .debug_info    0x00001d02      0x679 PedalCom.o
 .debug_info    0x0000237b      0x14c RotaryEncoder.o
 .debug_info    0x000024c7      0x32b SP10281_3x7segment.o
 .debug_info    0x000027f2     0x12b5 System.o
 .debug_info    0x00003aa7      0x219 Timer.o
 .debug_info    0x00003cc0      0x6c4 UART.o
 .debug_info    0x00004384      0x603 UI.o
 .debug_info    0x00004987       0xd6 util.o
 .debug_info    0x00004a5d       0x9c C:/Program Files (x86)/Atmel/Studio/7.0/Packs/Atmel/ATmega_DFP/1.3.300/gcc/dev/atmega324pa/avr5\libatmega324pa.a(eerd_block.o)
 .debug_info    0x00004af9       0x9b C:/Program Files (x86)/Atmel/Studio/7.0/Packs/Atmel/ATmega_DFP/1.3.300/gcc/dev/atmega324pa/avr5\libatmega324pa.a(eerd_byte.o)
 .debug_info    0x00004b94       0x9c C:/Program Files (x86)/Atmel/Studio/7.0/Packs/Atmel/ATmega_DFP/1.3.300/gcc/dev/atmega324pa/avr5\libatmega324pa.a(eewr_block.o)
 .debug_info    0x00004c30       0x9b C:/Program Files (x86)/Atmel/Studio/7.0/Packs/Atmel/ATmega_DFP/1.3.300/gcc/dev/atmega324pa/avr5\libatmega324pa.a(eewr_byte.o)

.debug_abbrev   0x00000000     0x1a3b
 *(.debug_abbrev)
 .debug_abbrev  0x00000000      0x66e C:/Program Files (x86)/Atmel/Studio/7.0/Packs/Atmel/ATmega_DFP/1.3.300/gcc/dev/atmega324pa/avr5/crtatmega324pa.o
 .debug_abbrev  0x0000066e       0xe9 i2cmaster.o
 .debug_abbrev  0x00000757      0x1a0 main.o
 .debug_abbrev  0x000008f7      0x310 MCP23017.o
 .debug_abbrev  0x00000c07      0x119 MIDI.o
 .debug_abbrev  0x00000d20      0x267 PedalCom.o
 .debug_abbrev  0x00000f87       0xa8 RotaryEncoder.o
 .debug_abbrev  0x0000102f      0x120 SP10281_3x7segment.o
 .debug_abbrev  0x0000114f      0x306 System.o
 .debug_abbrev  0x00001455       0xc6 Timer.o
 .debug_abbrev  0x0000151b      0x250 UART.o
 .debug_abbrev  0x0000176b      0x1f1 UI.o
 .debug_abbrev  0x0000195c       0x8f util.o
 .debug_abbrev  0x000019eb       0x14 C:/Program Files (x86)/Atmel/Studio/7.0/Packs/Atmel/ATmega_DFP/1.3.300/gcc/dev/atmega324pa/avr5\libatmega324pa.a(eerd_block.o)
 .debug_abbrev  0x000019ff       0x14 C:/Program Files (x86)/Atmel/Studio/7.0/Packs/Atmel/ATmega_DFP/1.3.300/gcc/dev/atmega324pa/avr5\libatmega324pa.a(eerd_byte.o)
 .debug_abbrev  0x00001a13       0x14 C:/Program Files (x86)/Atmel/Studio/7.0/Packs/Atmel/ATmega_DFP/1.3.300/gcc/dev/atmega324pa/avr5\libatmega324pa.a(eewr_block.o)
 .debug_abbrev  0x00001a27       0x14 C:/Program Files (x86)/Atmel/Studio/7.0/Packs/Atmel/ATmega_DFP/1.3.300/gcc/dev/atmega324pa/avr5\libatmega324pa.a(eewr_byte.o)

.debug_line     0x00000000     0x26d2
 *(.debug_line .debug_line.* .debug_line_end)
 .debug_line    0x00000000      0x151 C:/Program Files (x86)/Atmel/Studio/7.0/Packs/Atmel/ATmega_DFP/1.3.300/gcc/dev/atmega324pa/avr5/crtatmega324pa.o
 .debug_line    0x00000151      0x26e i2cmaster.o
 .debug_line    0x000003bf      0x28a main.o
 .debug_line    0x00000649      0x36b MCP23017.o
 .debug_line    0x000009b4      0x139 MIDI.o
 .debug_line    0x00000aed      0x3a3 PedalCom.o
 .debug_line    0x00000e90      0x11c RotaryEncoder.o
 .debug_line    0x00000fac      0x136 SP10281_3x7segment.o
 .debug_line    0x000010e2      0x9e8 System.o
 .debug_line    0x00001aca      0x24d Timer.o
 .debug_line    0x00001d17      0x540 UART.o
 .debug_line    0x00002257      0x13d UI.o
 .debug_line    0x00002394       0xfb util.o
 .debug_line    0x0000248f       0xab C:/Program Files (x86)/Atmel/Studio/7.0/Packs/Atmel/ATmega_DFP/1.3.300/gcc/dev/atmega324pa/avr5\libatmega324pa.a(eerd_block.o)
 .debug_line    0x0000253a       0x7a C:/Program Files (x86)/Atmel/Studio/7.0/Packs/Atmel/ATmega_DFP/1.3.300/gcc/dev/atmega324pa/avr5\libatmega324pa.a(eerd_byte.o)
 .debug_line    0x000025b4       0x80 C:/Program Files (x86)/Atmel/Studio/7.0/Packs/Atmel/ATmega_DFP/1.3.300/gcc/dev/atmega324pa/avr5\libatmega324pa.a(eewr_block.o)
 .debug_line    0x00002634       0x9e C:/Program Files (x86)/Atmel/Studio/7.0/Packs/Atmel/ATmega_DFP/1.3.300/gcc/dev/atmega324pa/avr5\libatmega324pa.a(eewr_byte.o)

.debug_frame    0x00000000      0x964
 *(.debug_frame)
 .debug_frame   0x00000000       0xa0 i2cmaster.o
 .debug_frame   0x000000a0       0x24 main.o
 .debug_frame   0x000000c4      0x168 MCP23017.o
 .debug_frame   0x0000022c       0x40 MIDI.o
 .debug_frame   0x0000026c      0x130 PedalCom.o
 .debug_frame   0x0000039c       0xa0 RotaryEncoder.o
 .debug_frame   0x0000043c       0x8c SP10281_3x7segment.o
 .debug_frame   0x000004c8      0x144 System.o
 .debug_frame   0x0000060c       0x64 Timer.o
 .debug_frame   0x00000670      0x258 UART.o
 .debug_frame   0x000008c8       0x68 UI.o
 .debug_frame   0x00000930       0x34 util.o

.debug_str      0x00000000     0x1cad
 *(.debug_str)
 .debug_str     0x00000000      0x255 C:/Program Files (x86)/Atmel/Studio/7.0/Packs/Atmel/ATmega_DFP/1.3.300/gcc/dev/atmega324pa/avr5/crtatmega324pa.o
 .debug_str     0x00000255      0x286 i2cmaster.o
                                0x2ba (size before relaxing)
 .debug_str     0x000004db      0x976 main.o
                                0xbea (size before relaxing)
 .debug_str     0x00000e51      0x250 MCP23017.o
                                0x6b9 (size before relaxing)
 .debug_str     0x000010a1      0x1a1 MIDI.o
                                0x3b5 (size before relaxing)
 .debug_str     0x00001242      0x1a7 PedalCom.o
                                0x7d0 (size before relaxing)
 .debug_str     0x000013e9       0xdf RotaryEncoder.o
                                0x2eb (size before relaxing)
 .debug_str     0x000014c8      0x102 SP10281_3x7segment.o
                                0x31f (size before relaxing)
 .debug_str     0x000015ca      0x3ad System.o
                                0xe0f (size before relaxing)
 .debug_str     0x00001977       0x24 Timer.o
                                0x40b (size before relaxing)
 .debug_str     0x0000199b      0x273 UART.o
                                0x5b6 (size before relaxing)
 .debug_str     0x00001c0e       0x6a UI.o
                                0x4e9 (size before relaxing)
 .debug_str     0x00001c78       0x35 util.o
                                0x1f4 (size before relaxing)

.debug_loc      0x00000000     0x1d2f
 *(.debug_loc)
 .debug_loc     0x00000000      0x12d i2cmaster.o
 .debug_loc     0x0000012d      0x77a MCP23017.o
 .debug_loc     0x000008a7       0x50 MIDI.o
 .debug_loc     0x000008f7      0x1f1 PedalCom.o
 .debug_loc     0x00000ae8       0xb9 RotaryEncoder.o
 .debug_loc     0x00000ba1      0x276 SP10281_3x7segment.o
 .debug_loc     0x00000e17      0x438 System.o
 .debug_loc     0x0000124f       0xb5 Timer.o
 .debug_loc     0x00001304      0x859 UART.o
 .debug_loc     0x00001b5d      0x112 UI.o
 .debug_loc     0x00001c6f       0xc0 util.o

.debug_macinfo
 *(.debug_macinfo)

.debug_weaknames
 *(.debug_weaknames)

.debug_funcnames
 *(.debug_funcnames)

.debug_typenames
 *(.debug_typenames)

.debug_varnames
 *(.debug_varnames)

.debug_pubtypes
 *(.debug_pubtypes)

.debug_ranges   0x00000000      0x340
 *(.debug_ranges)
 .debug_ranges  0x00000000       0x48 i2cmaster.o
 .debug_ranges  0x00000048       0x10 main.o
 .debug_ranges  0x00000058       0x78 MCP23017.o
 .debug_ranges  0x000000d0       0x18 MIDI.o
 .debug_ranges  0x000000e8       0x68 PedalCom.o
 .debug_ranges  0x00000150       0x30 RotaryEncoder.o
 .debug_ranges  0x00000180       0x30 SP10281_3x7segment.o
 .debug_ranges  0x000001b0       0x58 System.o
 .debug_ranges  0x00000208       0x20 Timer.o
 .debug_ranges  0x00000228       0xe8 UART.o
 .debug_ranges  0x00000310       0x18 UI.o
 .debug_ranges  0x00000328       0x18 util.o

.debug_macro
 *(.debug_macro)
OUTPUT(Rack_LoopController_MASTER.elf elf32-avr)
LOAD linker stubs
