   1               		.file	"Footswitch.cpp"
   2               	__SP_H__ = 0x3e
   3               	__SP_L__ = 0x3d
   4               	__SREG__ = 0x3f
   5               	__tmp_reg__ = 0
   6               	__zero_reg__ = 1
   7               		.text
   8               	.Ltext0:
   9               		.cfi_sections	.debug_frame
  10               	.global	_Z22Footswitch_HandlePressv
  12               	_Z22Footswitch_HandlePressv:
  13               	.LFB3:
  14               		.file 1 "Footswitch.cpp"
   1:Footswitch.cpp **** /*
   2:Footswitch.cpp ****  * Footswitch.cpp
   3:Footswitch.cpp ****  *
   4:Footswitch.cpp ****  * Created: 12-02-2020 18:40:20
   5:Footswitch.cpp ****  *  Author: Esben
   6:Footswitch.cpp ****  */ 
   7:Footswitch.cpp **** 
   8:Footswitch.cpp **** #include <avr/io.h>
   9:Footswitch.cpp **** #include <avr/interrupt.h>
  10:Footswitch.cpp **** #include "Footswitch.h"
  11:Footswitch.cpp **** #include "MCP23017.h"
  12:Footswitch.cpp **** #include "Segment7.h"
  13:Footswitch.cpp **** #include "System.h"
  14:Footswitch.cpp **** 
  15:Footswitch.cpp **** /* Variable initialization */
  16:Footswitch.cpp **** volatile Footswitch_State Footswitch_PressState = IDLE;
  17:Footswitch.cpp **** volatile bool Footswitch_PressFlag = false;
  18:Footswitch.cpp **** volatile uint8_t Footswitch_PortState = 0;
  19:Footswitch.cpp **** volatile uint8_t Footswitch_InterruptMask = 0;
  20:Footswitch.cpp **** volatile uint16_t Footswitch_TimerOvfCnt = 0;
  21:Footswitch.cpp **** volatile bool Footswitch_TimerFlag = false;
  22:Footswitch.cpp **** 
  23:Footswitch.cpp **** /* Function implementations */
  24:Footswitch.cpp **** void Footswitch_Init()
  25:Footswitch.cpp **** {	
  26:Footswitch.cpp **** 	DDRC &= ~(1 << PORTC1);		// Set PortC 1 as input
  27:Footswitch.cpp **** 	PCMSK1 |= (1 << PCINT9);	// Enable PCINT[9] PortC1 for interrupt
  28:Footswitch.cpp **** 	PCICR |= (1 << PCIE1);		// Enable Pin Change Interrupt 1 (PCINT[14:8])
  29:Footswitch.cpp **** 	
  30:Footswitch.cpp **** 	Footswitch_EnableInterrupt();
  31:Footswitch.cpp **** }
  32:Footswitch.cpp **** 
  33:Footswitch.cpp **** void Footswitch_PressDetected()
  34:Footswitch.cpp **** {
  35:Footswitch.cpp **** 	uint8_t tmp = 0;
  36:Footswitch.cpp **** 	
  37:Footswitch.cpp **** 	tmp = MCP23017_ReadReg(MCP23017_ADDR_SWITCH_INDICATOR, INTFB);		// Read what pin caused the interr
  38:Footswitch.cpp **** 	
  39:Footswitch.cpp **** 	Footswitch_PortState = MCP23017_ReadReg(MCP23017_ADDR_SWITCH_INDICATOR, INTCAPB);	// Read state of
  40:Footswitch.cpp **** 	
  41:Footswitch.cpp **** 	if (Footswitch_PortState != 0x00)		// Footswitch pressed
  42:Footswitch.cpp **** 	{
  43:Footswitch.cpp **** 		Footswitch_InterruptMask = tmp;
  44:Footswitch.cpp **** 		Footswitch_PressState = PRESS_SENSED;
  45:Footswitch.cpp **** 		Footswitch_TimerOvfCnt = 1;		// Start Timer
  46:Footswitch.cpp **** 	}
  47:Footswitch.cpp **** 	else	// Footswitch released
  48:Footswitch.cpp **** 	{
  49:Footswitch.cpp **** 		if (Footswitch_PressState == PRESSED)
  50:Footswitch.cpp **** 		{
  51:Footswitch.cpp **** 			Footswitch_PressState = LONG_PRESS;
  52:Footswitch.cpp **** 		}
  53:Footswitch.cpp **** 		
  54:Footswitch.cpp **** 		Footswitch_EnableInterrupt();
  55:Footswitch.cpp **** 	}	
  56:Footswitch.cpp **** }
  57:Footswitch.cpp **** 
  58:Footswitch.cpp **** void Footswitch_HandleTimer()
  59:Footswitch.cpp **** {
  60:Footswitch.cpp **** 	Footswitch_PortState = MCP23017_ReadReg(MCP23017_ADDR_SWITCH_INDICATOR, GPIOB);		// Read current s
  61:Footswitch.cpp **** 	
  62:Footswitch.cpp **** 	if (Footswitch_PressState == WAITING)
  63:Footswitch.cpp **** 	{
  64:Footswitch.cpp **** 		/* Check if switch is no longer pressed */
  65:Footswitch.cpp **** 		if (Footswitch_PortState != Footswitch_InterruptMask)
  66:Footswitch.cpp **** 		{
  67:Footswitch.cpp **** 			Footswitch_PressState = SHORT_PRESS;
  68:Footswitch.cpp **** 			Footswitch_TimerOvfCnt = 0;	// Stop timer
  69:Footswitch.cpp **** 		}
  70:Footswitch.cpp **** 	}
  71:Footswitch.cpp **** 	else if (Footswitch_PressState == PRESSED)
  72:Footswitch.cpp **** 	{
  73:Footswitch.cpp **** 		/* Check if switch is no longer pressed */
  74:Footswitch.cpp **** 		if (Footswitch_PortState != Footswitch_InterruptMask)
  75:Footswitch.cpp **** 		{
  76:Footswitch.cpp **** 			Footswitch_TimerOvfCnt = 0;	// Stop timer
  77:Footswitch.cpp **** 			Footswitch_PressState = SHORT_PRESS;
  78:Footswitch.cpp **** 		}
  79:Footswitch.cpp **** 		else
  80:Footswitch.cpp **** 		{
  81:Footswitch.cpp **** 			/* Enable interrupt so Long Press will be trigged as soon as the user lifts his/her foot from th
  82:Footswitch.cpp **** 			Footswitch_EnableInterrupt();
  83:Footswitch.cpp **** 			
  84:Footswitch.cpp **** 			/* Write appropriate message in 7-segment display based on system state */
  85:Footswitch.cpp **** 			if (SystemState == EDITING)
  86:Footswitch.cpp **** 			{
  87:Footswitch.cpp **** 			}
  88:Footswitch.cpp **** 			else if (SystemState == RUN_PRESET_CTRL)
  89:Footswitch.cpp **** 			{
  90:Footswitch.cpp **** 				Segment7_WriteAll('L', 'o', 'o', 'P', 0, 0, 0, 0);
  91:Footswitch.cpp **** 			}
  92:Footswitch.cpp **** 			else if (SystemState == RUN_LOOP_CTRL)
  93:Footswitch.cpp **** 			{
  94:Footswitch.cpp **** 				if (Footswitch_InterruptMask & 0xF0)
  95:Footswitch.cpp **** 				{
  96:Footswitch.cpp **** 					Segment7_WriteAll('P', 'r', 'e', ' ', 0, 0, 0, 0);
  97:Footswitch.cpp **** 				}
  98:Footswitch.cpp **** 				else
  99:Footswitch.cpp **** 				{
 100:Footswitch.cpp **** 					Segment7_WriteAll('^', '^', '^', '^', 0, 0, 0, 0);
 101:Footswitch.cpp **** 				}
 102:Footswitch.cpp **** 			}
 103:Footswitch.cpp **** 			else if (SystemState == TUNER)
 104:Footswitch.cpp **** 			{
 105:Footswitch.cpp **** 			}
 106:Footswitch.cpp **** 		}
 107:Footswitch.cpp **** 	}
 108:Footswitch.cpp **** 	else if (Footswitch_PressState == STILL_PRESSED)
 109:Footswitch.cpp **** 	{
 110:Footswitch.cpp **** 		/* Check if switch is no longer pressed */
 111:Footswitch.cpp **** 		if (Footswitch_PortState != Footswitch_InterruptMask)
 112:Footswitch.cpp **** 		{
 113:Footswitch.cpp **** 			Footswitch_PressState = LONG_PRESS;
 114:Footswitch.cpp **** 		}
 115:Footswitch.cpp **** 		else
 116:Footswitch.cpp **** 		{
 117:Footswitch.cpp **** 			Footswitch_PressState = LONG_LONG_PRESS;
 118:Footswitch.cpp **** 		}
 119:Footswitch.cpp **** 		
 120:Footswitch.cpp **** 		Footswitch_TimerOvfCnt = 0;	// Stop timer
 121:Footswitch.cpp **** 	}
 122:Footswitch.cpp **** }
 123:Footswitch.cpp **** 
 124:Footswitch.cpp **** void Footswitch_HandlePress()
 125:Footswitch.cpp **** {	
  15               		.loc 1 125 1 view -0
  16               		.cfi_startproc
  17               	/* prologue: function */
  18               	/* frame size = 0 */
  19               	/* stack size = 0 */
  20               	.L__stack_usage = 0
 126:Footswitch.cpp **** 	System_HandleFootswitchInput(Footswitch_PressState, Footswitch_InterruptMask);
  21               		.loc 1 126 2 view .LVU1
  22               		.loc 1 126 30 is_stmt 0 view .LVU2
  23 0000 6091 0000 		lds r22,Footswitch_InterruptMask
  24 0004 8091 0000 		lds r24,Footswitch_PressState
  25 0008 0C94 0000 		jmp _Z28System_HandleFootswitchInput16Footswitch_Stateh
  26               	.LVL0:
  27               		.cfi_endproc
  28               	.LFE3:
  30               	.global	_Z26Footswitch_EnableInterruptv
  32               	_Z26Footswitch_EnableInterruptv:
  33               	.LFB4:
 127:Footswitch.cpp **** }
 128:Footswitch.cpp **** 
 129:Footswitch.cpp **** void Footswitch_EnableInterrupt()
 130:Footswitch.cpp **** {
  34               		.loc 1 130 1 is_stmt 1 view -0
  35               		.cfi_startproc
  36               	/* prologue: function */
  37               	/* frame size = 0 */
  38               	/* stack size = 0 */
  39               	.L__stack_usage = 0
 131:Footswitch.cpp **** 	PCIFR |= (1 << PCIF1);		// Clear Pin Change Interrupt Flag 1
  40               		.loc 1 131 2 view .LVU4
  41               		.loc 1 131 8 is_stmt 0 view .LVU5
  42 000c D99A      		sbi 0x1b,1
 132:Footswitch.cpp **** 	PCICR |= (1 << PCIE1);		// Enable Pin Change Interrupt 1 (PCINT[14:8])
  43               		.loc 1 132 2 is_stmt 1 view .LVU6
  44               		.loc 1 132 8 is_stmt 0 view .LVU7
  45 000e E8E6      		ldi r30,lo8(104)
  46 0010 F0E0      		ldi r31,0
  47 0012 8081      		ld r24,Z
  48 0014 8260      		ori r24,lo8(2)
  49 0016 8083      		st Z,r24
  50               	/* epilogue start */
 133:Footswitch.cpp **** }
  51               		.loc 1 133 1 view .LVU8
  52 0018 0895      		ret
  53               		.cfi_endproc
  54               	.LFE4:
  56               	.global	_Z15Footswitch_Initv
  58               	_Z15Footswitch_Initv:
  59               	.LFB0:
  25:Footswitch.cpp **** 	DDRC &= ~(1 << PORTC1);		// Set PortC 1 as input
  60               		.loc 1 25 1 is_stmt 1 view -0
  61               		.cfi_startproc
  62               	/* prologue: function */
  63               	/* frame size = 0 */
  64               	/* stack size = 0 */
  65               	.L__stack_usage = 0
  26:Footswitch.cpp **** 	PCMSK1 |= (1 << PCINT9);	// Enable PCINT[9] PortC1 for interrupt
  66               		.loc 1 26 2 view .LVU10
  26:Footswitch.cpp **** 	PCMSK1 |= (1 << PCINT9);	// Enable PCINT[9] PortC1 for interrupt
  67               		.loc 1 26 7 is_stmt 0 view .LVU11
  68 001a 3998      		cbi 0x7,1
  27:Footswitch.cpp **** 	PCICR |= (1 << PCIE1);		// Enable Pin Change Interrupt 1 (PCINT[14:8])
  69               		.loc 1 27 2 is_stmt 1 view .LVU12
  27:Footswitch.cpp **** 	PCICR |= (1 << PCIE1);		// Enable Pin Change Interrupt 1 (PCINT[14:8])
  70               		.loc 1 27 9 is_stmt 0 view .LVU13
  71 001c ECE6      		ldi r30,lo8(108)
  72 001e F0E0      		ldi r31,0
  73 0020 8081      		ld r24,Z
  74 0022 8260      		ori r24,lo8(2)
  75 0024 8083      		st Z,r24
  28:Footswitch.cpp **** 	
  76               		.loc 1 28 2 is_stmt 1 view .LVU14
  28:Footswitch.cpp **** 	
  77               		.loc 1 28 8 is_stmt 0 view .LVU15
  78 0026 E8E6      		ldi r30,lo8(104)
  79 0028 F0E0      		ldi r31,0
  80 002a 8081      		ld r24,Z
  81 002c 8260      		ori r24,lo8(2)
  82 002e 8083      		st Z,r24
  30:Footswitch.cpp **** }
  83               		.loc 1 30 2 is_stmt 1 view .LVU16
  30:Footswitch.cpp **** }
  84               		.loc 1 30 28 is_stmt 0 view .LVU17
  85 0030 0C94 0000 		jmp _Z26Footswitch_EnableInterruptv
  86               	.LVL1:
  87               		.cfi_endproc
  88               	.LFE0:
  90               	.global	_Z24Footswitch_PressDetectedv
  92               	_Z24Footswitch_PressDetectedv:
  93               	.LFB1:
  34:Footswitch.cpp **** 	uint8_t tmp = 0;
  94               		.loc 1 34 1 is_stmt 1 view -0
  95               		.cfi_startproc
  96 0034 CF93      		push r28
  97               	.LCFI0:
  98               		.cfi_def_cfa_offset 3
  99               		.cfi_offset 28, -2
 100               	/* prologue: function */
 101               	/* frame size = 0 */
 102               	/* stack size = 1 */
 103               	.L__stack_usage = 1
  35:Footswitch.cpp **** 	
 104               		.loc 1 35 2 view .LVU19
 105               	.LVL2:
  37:Footswitch.cpp **** 	
 106               		.loc 1 37 2 view .LVU20
  37:Footswitch.cpp **** 	
 107               		.loc 1 37 24 is_stmt 0 view .LVU21
 108 0036 6FE0      		ldi r22,lo8(15)
 109 0038 80E0      		ldi r24,0
 110 003a 0E94 0000 		call _Z16MCP23017_ReadReghh
 111               	.LVL3:
 112 003e C82F      		mov r28,r24
 113               	.LVL4:
  39:Footswitch.cpp **** 	
 114               		.loc 1 39 2 is_stmt 1 view .LVU22
  39:Footswitch.cpp **** 	
 115               		.loc 1 39 41 is_stmt 0 view .LVU23
 116 0040 61E1      		ldi r22,lo8(17)
 117 0042 80E0      		ldi r24,0
 118               	.LVL5:
  39:Footswitch.cpp **** 	
 119               		.loc 1 39 41 view .LVU24
 120 0044 0E94 0000 		call _Z16MCP23017_ReadReghh
 121               	.LVL6:
  39:Footswitch.cpp **** 	
 122               		.loc 1 39 23 view .LVU25
 123 0048 8093 0000 		sts Footswitch_PortState,r24
  41:Footswitch.cpp **** 	{
 124               		.loc 1 41 2 is_stmt 1 view .LVU26
  41:Footswitch.cpp **** 	{
 125               		.loc 1 41 27 is_stmt 0 view .LVU27
 126 004c 8091 0000 		lds r24,Footswitch_PortState
  41:Footswitch.cpp **** 	{
 127               		.loc 1 41 2 view .LVU28
 128 0050 8823      		tst r24
 129 0052 01F0      		breq .L5
  43:Footswitch.cpp **** 		Footswitch_PressState = PRESS_SENSED;
 130               		.loc 1 43 3 is_stmt 1 view .LVU29
  43:Footswitch.cpp **** 		Footswitch_PressState = PRESS_SENSED;
 131               		.loc 1 43 28 is_stmt 0 view .LVU30
 132 0054 C093 0000 		sts Footswitch_InterruptMask,r28
  44:Footswitch.cpp **** 		Footswitch_TimerOvfCnt = 1;		// Start Timer
 133               		.loc 1 44 3 is_stmt 1 view .LVU31
  44:Footswitch.cpp **** 		Footswitch_TimerOvfCnt = 1;		// Start Timer
 134               		.loc 1 44 25 is_stmt 0 view .LVU32
 135 0058 81E0      		ldi r24,lo8(1)
 136 005a 8093 0000 		sts Footswitch_PressState,r24
  45:Footswitch.cpp **** 	}
 137               		.loc 1 45 3 is_stmt 1 view .LVU33
  45:Footswitch.cpp **** 	}
 138               		.loc 1 45 26 is_stmt 0 view .LVU34
 139 005e 81E0      		ldi r24,lo8(1)
 140 0060 90E0      		ldi r25,0
 141 0062 9093 0000 		sts Footswitch_TimerOvfCnt+1,r25
 142 0066 8093 0000 		sts Footswitch_TimerOvfCnt,r24
 143               	/* epilogue start */
  56:Footswitch.cpp **** 
 144               		.loc 1 56 1 view .LVU35
 145 006a CF91      		pop r28
 146               	.LVL7:
  56:Footswitch.cpp **** 
 147               		.loc 1 56 1 view .LVU36
 148 006c 0895      		ret
 149               	.LVL8:
 150               	.L5:
  49:Footswitch.cpp **** 		{
 151               		.loc 1 49 3 is_stmt 1 view .LVU37
  49:Footswitch.cpp **** 		{
 152               		.loc 1 49 29 is_stmt 0 view .LVU38
 153 006e 8091 0000 		lds r24,Footswitch_PressState
  49:Footswitch.cpp **** 		{
 154               		.loc 1 49 3 view .LVU39
 155 0072 8430      		cpi r24,lo8(4)
 156 0074 01F4      		brne .L7
  51:Footswitch.cpp **** 		}
 157               		.loc 1 51 4 is_stmt 1 view .LVU40
  51:Footswitch.cpp **** 		}
 158               		.loc 1 51 26 is_stmt 0 view .LVU41
 159 0076 86E0      		ldi r24,lo8(6)
 160 0078 8093 0000 		sts Footswitch_PressState,r24
 161               	.L7:
  54:Footswitch.cpp **** 	}	
 162               		.loc 1 54 3 is_stmt 1 view .LVU42
 163               	/* epilogue start */
  56:Footswitch.cpp **** 
 164               		.loc 1 56 1 is_stmt 0 view .LVU43
 165 007c CF91      		pop r28
 166               	.LVL9:
  54:Footswitch.cpp **** 	}	
 167               		.loc 1 54 29 view .LVU44
 168 007e 0C94 0000 		jmp _Z26Footswitch_EnableInterruptv
 169               	.LVL10:
 170               		.cfi_endproc
 171               	.LFE1:
 173               	.global	_Z22Footswitch_HandleTimerv
 175               	_Z22Footswitch_HandleTimerv:
 176               	.LFB2:
  59:Footswitch.cpp **** 	Footswitch_PortState = MCP23017_ReadReg(MCP23017_ADDR_SWITCH_INDICATOR, GPIOB);		// Read current s
 177               		.loc 1 59 1 is_stmt 1 view -0
 178               		.cfi_startproc
 179 0082 AF92      		push r10
 180               	.LCFI1:
 181               		.cfi_def_cfa_offset 3
 182               		.cfi_offset 10, -2
 183 0084 CF92      		push r12
 184               	.LCFI2:
 185               		.cfi_def_cfa_offset 4
 186               		.cfi_offset 12, -3
 187 0086 EF92      		push r14
 188               	.LCFI3:
 189               		.cfi_def_cfa_offset 5
 190               		.cfi_offset 14, -4
 191 0088 0F93      		push r16
 192               	.LCFI4:
 193               		.cfi_def_cfa_offset 6
 194               		.cfi_offset 16, -5
 195               	/* prologue: function */
 196               	/* frame size = 0 */
 197               	/* stack size = 4 */
 198               	.L__stack_usage = 4
  60:Footswitch.cpp **** 	
 199               		.loc 1 60 2 view .LVU46
  60:Footswitch.cpp **** 	
 200               		.loc 1 60 41 is_stmt 0 view .LVU47
 201 008a 63E1      		ldi r22,lo8(19)
 202 008c 80E0      		ldi r24,0
 203 008e 0E94 0000 		call _Z16MCP23017_ReadReghh
 204               	.LVL11:
  60:Footswitch.cpp **** 	
 205               		.loc 1 60 23 view .LVU48
 206 0092 8093 0000 		sts Footswitch_PortState,r24
  62:Footswitch.cpp **** 	{
 207               		.loc 1 62 2 is_stmt 1 view .LVU49
  62:Footswitch.cpp **** 	{
 208               		.loc 1 62 28 is_stmt 0 view .LVU50
 209 0096 8091 0000 		lds r24,Footswitch_PressState
  62:Footswitch.cpp **** 	{
 210               		.loc 1 62 2 view .LVU51
 211 009a 8230      		cpi r24,lo8(2)
 212 009c 01F4      		brne .L10
  65:Footswitch.cpp **** 		{
 213               		.loc 1 65 3 is_stmt 1 view .LVU52
  65:Footswitch.cpp **** 		{
 214               		.loc 1 65 28 is_stmt 0 view .LVU53
 215 009e 9091 0000 		lds r25,Footswitch_PortState
 216 00a2 8091 0000 		lds r24,Footswitch_InterruptMask
  65:Footswitch.cpp **** 		{
 217               		.loc 1 65 3 view .LVU54
 218 00a6 9817      		cp r25,r24
 219 00a8 01F0      		breq .L9
  67:Footswitch.cpp **** 			Footswitch_TimerOvfCnt = 0;	// Stop timer
 220               		.loc 1 67 4 is_stmt 1 view .LVU55
  67:Footswitch.cpp **** 			Footswitch_TimerOvfCnt = 0;	// Stop timer
 221               		.loc 1 67 26 is_stmt 0 view .LVU56
 222 00aa 83E0      		ldi r24,lo8(3)
 223               	.L24:
 117:Footswitch.cpp **** 		}
 224               		.loc 1 117 26 view .LVU57
 225 00ac 8093 0000 		sts Footswitch_PressState,r24
 120:Footswitch.cpp **** 	}
 226               		.loc 1 120 3 is_stmt 1 view .LVU58
 120:Footswitch.cpp **** 	}
 227               		.loc 1 120 26 is_stmt 0 view .LVU59
 228 00b0 1092 0000 		sts Footswitch_TimerOvfCnt+1,__zero_reg__
 229 00b4 1092 0000 		sts Footswitch_TimerOvfCnt,__zero_reg__
 122:Footswitch.cpp **** 
 230               		.loc 1 122 1 view .LVU60
 231 00b8 00C0      		rjmp .L9
 232               	.L10:
  71:Footswitch.cpp **** 	{
 233               		.loc 1 71 7 is_stmt 1 view .LVU61
  71:Footswitch.cpp **** 	{
 234               		.loc 1 71 33 is_stmt 0 view .LVU62
 235 00ba 8091 0000 		lds r24,Footswitch_PressState
  71:Footswitch.cpp **** 	{
 236               		.loc 1 71 7 view .LVU63
 237 00be 8430      		cpi r24,lo8(4)
 238 00c0 01F0      		breq .+2
 239 00c2 00C0      		rjmp .L13
  74:Footswitch.cpp **** 		{
 240               		.loc 1 74 3 is_stmt 1 view .LVU64
  74:Footswitch.cpp **** 		{
 241               		.loc 1 74 28 is_stmt 0 view .LVU65
 242 00c4 9091 0000 		lds r25,Footswitch_PortState
 243 00c8 8091 0000 		lds r24,Footswitch_InterruptMask
  74:Footswitch.cpp **** 		{
 244               		.loc 1 74 3 view .LVU66
 245 00cc 9817      		cp r25,r24
 246 00ce 01F0      		breq .L14
  76:Footswitch.cpp **** 			Footswitch_PressState = SHORT_PRESS;
 247               		.loc 1 76 4 is_stmt 1 view .LVU67
  76:Footswitch.cpp **** 			Footswitch_PressState = SHORT_PRESS;
 248               		.loc 1 76 27 is_stmt 0 view .LVU68
 249 00d0 1092 0000 		sts Footswitch_TimerOvfCnt+1,__zero_reg__
 250 00d4 1092 0000 		sts Footswitch_TimerOvfCnt,__zero_reg__
  77:Footswitch.cpp **** 		}
 251               		.loc 1 77 4 is_stmt 1 view .LVU69
  77:Footswitch.cpp **** 		}
 252               		.loc 1 77 26 is_stmt 0 view .LVU70
 253 00d8 83E0      		ldi r24,lo8(3)
 254 00da 8093 0000 		sts Footswitch_PressState,r24
 255               	.L9:
 256               	/* epilogue start */
 122:Footswitch.cpp **** 
 257               		.loc 1 122 1 view .LVU71
 258 00de 0F91      		pop r16
 259 00e0 EF90      		pop r14
 260 00e2 CF90      		pop r12
 261 00e4 AF90      		pop r10
 262 00e6 0895      		ret
 263               	.L14:
  82:Footswitch.cpp **** 			
 264               		.loc 1 82 4 is_stmt 1 view .LVU72
  82:Footswitch.cpp **** 			
 265               		.loc 1 82 30 is_stmt 0 view .LVU73
 266 00e8 0E94 0000 		call _Z26Footswitch_EnableInterruptv
 267               	.LVL12:
  85:Footswitch.cpp **** 			{
 268               		.loc 1 85 4 is_stmt 1 view .LVU74
  85:Footswitch.cpp **** 			{
 269               		.loc 1 85 20 is_stmt 0 view .LVU75
 270 00ec 8091 0000 		lds r24,SystemState
  85:Footswitch.cpp **** 			{
 271               		.loc 1 85 4 view .LVU76
 272 00f0 8823      		tst r24
 273 00f2 01F0      		breq .L9
  88:Footswitch.cpp **** 			{
 274               		.loc 1 88 9 is_stmt 1 view .LVU77
  88:Footswitch.cpp **** 			{
 275               		.loc 1 88 25 is_stmt 0 view .LVU78
 276 00f4 8091 0000 		lds r24,SystemState
  88:Footswitch.cpp **** 			{
 277               		.loc 1 88 9 view .LVU79
 278 00f8 8130      		cpi r24,lo8(1)
 279 00fa 01F4      		brne .L16
  90:Footswitch.cpp **** 			}
 280               		.loc 1 90 5 is_stmt 1 view .LVU80
  90:Footswitch.cpp **** 			}
 281               		.loc 1 90 22 is_stmt 0 view .LVU81
 282 00fc A12C      		mov r10,__zero_reg__
 283 00fe C12C      		mov r12,__zero_reg__
 284 0100 E12C      		mov r14,__zero_reg__
 285 0102 00E0      		ldi r16,0
 286 0104 20E5      		ldi r18,lo8(80)
 287 0106 4FE6      		ldi r20,lo8(111)
 288 0108 6FE6      		ldi r22,lo8(111)
 289 010a 8CE4      		ldi r24,lo8(76)
 290               	.L25:
  96:Footswitch.cpp **** 				}
 291               		.loc 1 96 23 view .LVU82
 292 010c 0E94 0000 		call _Z17Segment7_WriteAllcccchhhh
 293               	.LVL13:
 294 0110 00C0      		rjmp .L9
 295               	.L16:
  92:Footswitch.cpp **** 			{
 296               		.loc 1 92 9 is_stmt 1 view .LVU83
  92:Footswitch.cpp **** 			{
 297               		.loc 1 92 25 is_stmt 0 view .LVU84
 298 0112 8091 0000 		lds r24,SystemState
  92:Footswitch.cpp **** 			{
 299               		.loc 1 92 9 view .LVU85
 300 0116 8230      		cpi r24,lo8(2)
 301 0118 01F4      		brne .L17
  94:Footswitch.cpp **** 				{
 302               		.loc 1 94 5 is_stmt 1 view .LVU86
  94:Footswitch.cpp **** 				{
 303               		.loc 1 94 34 is_stmt 0 view .LVU87
 304 011a 8091 0000 		lds r24,Footswitch_InterruptMask
  94:Footswitch.cpp **** 				{
 305               		.loc 1 94 5 view .LVU88
 306 011e 807F      		andi r24,lo8(-16)
  96:Footswitch.cpp **** 				}
 307               		.loc 1 96 23 view .LVU89
 308 0120 A12C      		mov r10,__zero_reg__
 309 0122 C12C      		mov r12,__zero_reg__
 310 0124 E12C      		mov r14,__zero_reg__
 311 0126 00E0      		ldi r16,0
  94:Footswitch.cpp **** 				{
 312               		.loc 1 94 5 view .LVU90
 313 0128 01F0      		breq .L18
  96:Footswitch.cpp **** 				}
 314               		.loc 1 96 6 is_stmt 1 view .LVU91
  96:Footswitch.cpp **** 				}
 315               		.loc 1 96 23 is_stmt 0 view .LVU92
 316 012a 20E2      		ldi r18,lo8(32)
 317 012c 45E6      		ldi r20,lo8(101)
 318 012e 62E7      		ldi r22,lo8(114)
 319 0130 80E5      		ldi r24,lo8(80)
 320 0132 00C0      		rjmp .L25
 321               	.L18:
 100:Footswitch.cpp **** 				}
 322               		.loc 1 100 6 is_stmt 1 view .LVU93
 100:Footswitch.cpp **** 				}
 323               		.loc 1 100 23 is_stmt 0 view .LVU94
 324 0134 2EE5      		ldi r18,lo8(94)
 325 0136 4EE5      		ldi r20,lo8(94)
 326 0138 6EE5      		ldi r22,lo8(94)
 327 013a 8EE5      		ldi r24,lo8(94)
 328 013c 00C0      		rjmp .L25
 329               	.L17:
 103:Footswitch.cpp **** 			{
 330               		.loc 1 103 9 is_stmt 1 view .LVU95
 103:Footswitch.cpp **** 			{
 331               		.loc 1 103 25 is_stmt 0 view .LVU96
 332 013e 8091 0000 		lds r24,SystemState
 333 0142 00C0      		rjmp .L9
 334               	.L13:
 108:Footswitch.cpp **** 	{
 335               		.loc 1 108 7 is_stmt 1 view .LVU97
 108:Footswitch.cpp **** 	{
 336               		.loc 1 108 33 is_stmt 0 view .LVU98
 337 0144 8091 0000 		lds r24,Footswitch_PressState
 108:Footswitch.cpp **** 	{
 338               		.loc 1 108 7 view .LVU99
 339 0148 8530      		cpi r24,lo8(5)
 340 014a 01F4      		brne .L9
 111:Footswitch.cpp **** 		{
 341               		.loc 1 111 3 is_stmt 1 view .LVU100
 111:Footswitch.cpp **** 		{
 342               		.loc 1 111 28 is_stmt 0 view .LVU101
 343 014c 9091 0000 		lds r25,Footswitch_PortState
 344 0150 8091 0000 		lds r24,Footswitch_InterruptMask
 111:Footswitch.cpp **** 		{
 345               		.loc 1 111 3 view .LVU102
 346 0154 9817      		cp r25,r24
 347 0156 01F0      		breq .L19
 113:Footswitch.cpp **** 		}
 348               		.loc 1 113 4 is_stmt 1 view .LVU103
 113:Footswitch.cpp **** 		}
 349               		.loc 1 113 26 is_stmt 0 view .LVU104
 350 0158 86E0      		ldi r24,lo8(6)
 351 015a 00C0      		rjmp .L24
 352               	.L19:
 117:Footswitch.cpp **** 		}
 353               		.loc 1 117 4 is_stmt 1 view .LVU105
 117:Footswitch.cpp **** 		}
 354               		.loc 1 117 26 is_stmt 0 view .LVU106
 355 015c 87E0      		ldi r24,lo8(7)
 356 015e 00C0      		rjmp .L24
 357               		.cfi_endproc
 358               	.LFE2:
 360               	.global	__vector_4
 362               	__vector_4:
 363               	.LFB5:
 134:Footswitch.cpp **** 
 135:Footswitch.cpp **** /* Pin Change Interrupt 1 (PCINT1) Service Routine */
 136:Footswitch.cpp **** ISR (PCINT1_vect)
 137:Footswitch.cpp **** {
 364               		.loc 1 137 1 is_stmt 1 view -0
 365               		.cfi_startproc
 366 0160 8F93 8FB7 		__gcc_isr 1
 366      8F93 
 367               	/* prologue: Signal */
 368               	/* frame size = 0 */
 369               	/* stack size = 0...4 */
 370               	.L__stack_usage = 0 + __gcc_isr.n_pushed
 138:Footswitch.cpp **** 	if (!(PINC & (1 << PINC1)))		// Only react on falling-edge
 371               		.loc 1 138 2 view .LVU108
 372 0166 3199      		sbic 0x6,1
 373 0168 00C0      		rjmp .L26
 139:Footswitch.cpp **** 	{
 140:Footswitch.cpp **** 		PCICR &= ~(1 << PCIE1);		// Disable Pin Change Interrupt 1 (PCINT[14:8])
 374               		.loc 1 140 3 view .LVU109
 375               		.loc 1 140 9 is_stmt 0 view .LVU110
 376 016a 8091 6800 		lds r24,104
 377 016e 8D7F      		andi r24,lo8(-3)
 378 0170 8093 6800 		sts 104,r24
 141:Footswitch.cpp **** 		Footswitch_PressFlag = true;
 379               		.loc 1 141 3 is_stmt 1 view .LVU111
 380               		.loc 1 141 24 is_stmt 0 view .LVU112
 381 0174 81E0      		ldi r24,lo8(1)
 382 0176 8093 0000 		sts Footswitch_PressFlag,r24
 383               	.L26:
 384               	/* epilogue start */
 142:Footswitch.cpp **** 	}
 143:Footswitch.cpp **** }
 385               		.loc 1 143 1 view .LVU113
 386 017a 8F91 8FBF 		__gcc_isr 2
 386      8F91 
 387 0180 1895      		reti
 388               		__gcc_isr 0,r24
 389               		.cfi_endproc
 390               	.LFE5:
 392               	.global	Footswitch_TimerFlag
 393               		.section .bss
 396               	Footswitch_TimerFlag:
 397 0000 00        		.zero	1
 398               	.global	Footswitch_TimerOvfCnt
 401               	Footswitch_TimerOvfCnt:
 402 0001 0000      		.zero	2
 403               	.global	Footswitch_InterruptMask
 406               	Footswitch_InterruptMask:
 407 0003 00        		.zero	1
 408               	.global	Footswitch_PortState
 411               	Footswitch_PortState:
 412 0004 00        		.zero	1
 413               	.global	Footswitch_PressFlag
 416               	Footswitch_PressFlag:
 417 0005 00        		.zero	1
 418               	.global	Footswitch_PressState
 421               	Footswitch_PressState:
 422 0006 00        		.zero	1
 423               		.text
 424               	.Letext0:
 425               		.file 2 "/usr/avr/include/stdint.h"
 426               		.file 3 "Footswitch.h"
 427               		.file 4 "MasterCom.h"
 428               		.file 5 "System.h"
 429               		.file 6 "MCP23017.h"
 430               		.file 7 "Segment7.h"