   1               		.file	"System.cpp"
   2               	__SP_H__ = 0x3e
   3               	__SP_L__ = 0x3d
   4               	__SREG__ = 0x3f
   5               	__tmp_reg__ = 0
   6               	__zero_reg__ = 1
   7               		.text
   8               	.Ltext0:
   9               		.cfi_sections	.debug_frame
  10               	.global	_Z28System_HandleFootswitchInput16Footswitch_Stateh
  12               	_Z28System_HandleFootswitchInput16Footswitch_Stateh:
  13               	.LVL0:
  14               	.LFB0:
  15               		.file 1 "System.cpp"
   1:System.cpp    **** /*
   2:System.cpp    ****  * System.cpp
   3:System.cpp    ****  *
   4:System.cpp    ****  * Created: 12-02-2020 21:35:59
   5:System.cpp    ****  *  Author: Esben
   6:System.cpp    ****  */ 
   7:System.cpp    **** 
   8:System.cpp    **** #include <avr/io.h>
   9:System.cpp    **** #include "System.h"
  10:System.cpp    **** #include "Segment7.h"
  11:System.cpp    **** #include "MCP23017.h"
  12:System.cpp    **** 
  13:System.cpp    **** volatile System_State SystemState = EDITING;
  14:System.cpp    **** 
  15:System.cpp    **** void System_HandleFootswitchInput(Footswitch_State state, uint8_t sw)
  16:System.cpp    **** {
  16               		.loc 1 16 1 view -0
  17               		.cfi_startproc
  18               		.loc 1 16 1 is_stmt 0 view .LVU1
  19 0000 AF92      		push r10
  20               	.LCFI0:
  21               		.cfi_def_cfa_offset 3
  22               		.cfi_offset 10, -2
  23 0002 CF92      		push r12
  24               	.LCFI1:
  25               		.cfi_def_cfa_offset 4
  26               		.cfi_offset 12, -3
  27 0004 EF92      		push r14
  28               	.LCFI2:
  29               		.cfi_def_cfa_offset 5
  30               		.cfi_offset 14, -4
  31 0006 0F93      		push r16
  32               	.LCFI3:
  33               		.cfi_def_cfa_offset 6
  34               		.cfi_offset 16, -5
  35 0008 CF93      		push r28
  36               	.LCFI4:
  37               		.cfi_def_cfa_offset 7
  38               		.cfi_offset 28, -6
  39 000a DF93      		push r29
  40               	.LCFI5:
  41               		.cfi_def_cfa_offset 8
  42               		.cfi_offset 29, -7
  43 000c 0F92      		push __tmp_reg__
  44               	.LCFI6:
  45               		.cfi_def_cfa_offset 9
  46 000e CDB7      		in r28,__SP_L__
  47 0010 DEB7      		in r29,__SP_H__
  48               	.LCFI7:
  49               		.cfi_def_cfa_register 28
  50               	/* prologue: function */
  51               	/* frame size = 1 */
  52               	/* stack size = 7 */
  53               	.L__stack_usage = 7
  54 0012 6983      		std Y+1,r22
  17:System.cpp    **** 	if (state == SHORT_PRESS)
  55               		.loc 1 17 2 is_stmt 1 view .LVU2
  56 0014 8330      		cpi r24,lo8(3)
  57 0016 01F4      		brne .L2
  18:System.cpp    **** 	{
  19:System.cpp    **** 		MasterCom_QueueCommand(FootswitchShortPress, 1, (uint8_t *)&sw);
  58               		.loc 1 19 3 view .LVU3
  59               		.loc 1 19 25 is_stmt 0 view .LVU4
  60 0018 AE01      		movw r20,r28
  61 001a 4F5F      		subi r20,-1
  62 001c 5F4F      		sbci r21,-1
  63 001e 61E0      		ldi r22,lo8(1)
  64               	.LVL1:
  65               		.loc 1 19 25 view .LVU5
  66 0020 81EB      		ldi r24,lo8(-79)
  67               	.LVL2:
  68               	.L10:
  20:System.cpp    **** 	}
  21:System.cpp    **** 	else if (state == LONG_PRESS)
  22:System.cpp    **** 	{
  23:System.cpp    **** 		MasterCom_QueueCommand(FootswitchLongPress, 1, (uint8_t *)&sw);
  69               		.loc 1 23 25 view .LVU6
  70 0022 0E94 0000 		call _Z22MasterCom_QueueCommand3CMDhPh
  71               	.LVL3:
  72               	.L1:
  73               	/* epilogue start */
  24:System.cpp    **** 	}
  25:System.cpp    **** 	else if (state == LONG_LONG_PRESS)
  26:System.cpp    **** 	{
  27:System.cpp    **** 		MasterCom_QueueCommand(FootswitchLongLongPress, 1, (uint8_t *)&sw);
  28:System.cpp    **** 		
  29:System.cpp    **** 		if (SystemState != TUNER)
  30:System.cpp    **** 		{
  31:System.cpp    **** 			Segment7_WriteAll('T', 'u', 'n', 'r', 0, 0, 0, 0);
  32:System.cpp    **** 		}
  33:System.cpp    **** 	}
  34:System.cpp    **** }
  74               		.loc 1 34 1 view .LVU7
  75 0026 0F90      		pop __tmp_reg__
  76 0028 DF91      		pop r29
  77 002a CF91      		pop r28
  78 002c 0F91      		pop r16
  79 002e EF90      		pop r14
  80 0030 CF90      		pop r12
  81 0032 AF90      		pop r10
  82 0034 0895      		ret
  83               	.LVL4:
  84               	.L2:
  21:System.cpp    **** 	{
  85               		.loc 1 21 7 is_stmt 1 view .LVU8
  86 0036 8630      		cpi r24,lo8(6)
  87 0038 01F4      		brne .L4
  23:System.cpp    **** 	}
  88               		.loc 1 23 3 view .LVU9
  23:System.cpp    **** 	}
  89               		.loc 1 23 25 is_stmt 0 view .LVU10
  90 003a AE01      		movw r20,r28
  91 003c 4F5F      		subi r20,-1
  92 003e 5F4F      		sbci r21,-1
  93 0040 61E0      		ldi r22,lo8(1)
  94               	.LVL5:
  23:System.cpp    **** 	}
  95               		.loc 1 23 25 view .LVU11
  96 0042 82EB      		ldi r24,lo8(-78)
  97               	.LVL6:
  23:System.cpp    **** 	}
  98               		.loc 1 23 25 view .LVU12
  99 0044 00C0      		rjmp .L10
 100               	.LVL7:
 101               	.L4:
  25:System.cpp    **** 	{
 102               		.loc 1 25 7 is_stmt 1 view .LVU13
 103 0046 8730      		cpi r24,lo8(7)
 104 0048 01F4      		brne .L1
  27:System.cpp    **** 		
 105               		.loc 1 27 3 view .LVU14
  27:System.cpp    **** 		
 106               		.loc 1 27 25 is_stmt 0 view .LVU15
 107 004a AE01      		movw r20,r28
 108 004c 4F5F      		subi r20,-1
 109 004e 5F4F      		sbci r21,-1
 110 0050 61E0      		ldi r22,lo8(1)
 111               	.LVL8:
  27:System.cpp    **** 		
 112               		.loc 1 27 25 view .LVU16
 113 0052 84EB      		ldi r24,lo8(-76)
 114               	.LVL9:
  27:System.cpp    **** 		
 115               		.loc 1 27 25 view .LVU17
 116 0054 0E94 0000 		call _Z22MasterCom_QueueCommand3CMDhPh
 117               	.LVL10:
  29:System.cpp    **** 		{
 118               		.loc 1 29 3 is_stmt 1 view .LVU18
  29:System.cpp    **** 		{
 119               		.loc 1 29 19 is_stmt 0 view .LVU19
 120 0058 8091 0000 		lds r24,SystemState
  29:System.cpp    **** 		{
 121               		.loc 1 29 3 view .LVU20
 122 005c 8330      		cpi r24,lo8(3)
 123 005e 01F0      		breq .L1
  31:System.cpp    **** 		}
 124               		.loc 1 31 4 is_stmt 1 view .LVU21
  31:System.cpp    **** 		}
 125               		.loc 1 31 21 is_stmt 0 view .LVU22
 126 0060 A12C      		mov r10,__zero_reg__
 127 0062 C12C      		mov r12,__zero_reg__
 128 0064 E12C      		mov r14,__zero_reg__
 129 0066 00E0      		ldi r16,0
 130 0068 22E7      		ldi r18,lo8(114)
 131 006a 4EE6      		ldi r20,lo8(110)
 132 006c 65E7      		ldi r22,lo8(117)
 133 006e 84E5      		ldi r24,lo8(84)
 134 0070 0E94 0000 		call _Z17Segment7_WriteAllcccchhhh
 135               	.LVL11:
 136               		.loc 1 34 1 view .LVU23
 137 0074 00C0      		rjmp .L1
 138               		.cfi_endproc
 139               	.LFE0:
 141               	.global	_Z26System_HandleMasterCommand3CMDhPh
 143               	_Z26System_HandleMasterCommand3CMDhPh:
 144               	.LVL12:
 145               	.LFB1:
  35:System.cpp    **** 
  36:System.cpp    **** unsigned char System_HandleMasterCommand(CMD cmd, uint8_t length, uint8_t *dat)
  37:System.cpp    **** {
 146               		.loc 1 37 1 is_stmt 1 view -0
 147               		.cfi_startproc
 148               		.loc 1 37 1 is_stmt 0 view .LVU25
 149 0076 AF92      		push r10
 150               	.LCFI8:
 151               		.cfi_def_cfa_offset 3
 152               		.cfi_offset 10, -2
 153 0078 CF92      		push r12
 154               	.LCFI9:
 155               		.cfi_def_cfa_offset 4
 156               		.cfi_offset 12, -3
 157 007a EF92      		push r14
 158               	.LCFI10:
 159               		.cfi_def_cfa_offset 5
 160               		.cfi_offset 14, -4
 161 007c 0F93      		push r16
 162               	.LCFI11:
 163               		.cfi_def_cfa_offset 6
 164               		.cfi_offset 16, -5
 165 007e CF93      		push r28
 166               	.LCFI12:
 167               		.cfi_def_cfa_offset 7
 168               		.cfi_offset 28, -6
 169 0080 DF93      		push r29
 170               	.LCFI13:
 171               		.cfi_def_cfa_offset 8
 172               		.cfi_offset 29, -7
 173               	/* prologue: function */
 174               	/* frame size = 0 */
 175               	/* stack size = 6 */
 176               	.L__stack_usage = 6
 177 0082 EA01      		movw r28,r20
  38:System.cpp    **** 	unsigned char response = ACK_BYTE;
 178               		.loc 1 38 2 is_stmt 1 view .LVU26
 179               	.LVL13:
  39:System.cpp    **** 	
  40:System.cpp    **** 	if (cmd == UpdateSystemState && length == 1)
 180               		.loc 1 40 2 view .LVU27
 181 0084 853D      		cpi r24,lo8(-43)
 182 0086 01F4      		brne .L12
 183               		.loc 1 40 31 is_stmt 0 discriminator 1 view .LVU28
 184 0088 6130      		cpi r22,lo8(1)
 185 008a 01F0      		breq .+2
 186 008c 00C0      		rjmp .L24
  41:System.cpp    **** 	{
  42:System.cpp    **** 		if (dat[0] == 4)
 187               		.loc 1 42 3 is_stmt 1 view .LVU29
 188               		.loc 1 42 12 is_stmt 0 view .LVU30
 189 008e 8881      		ld r24,Y
 190               	.LVL14:
 191               		.loc 1 42 3 view .LVU31
 192 0090 8430      		cpi r24,lo8(4)
 193 0092 01F4      		brne .L14
  43:System.cpp    **** 		{
  44:System.cpp    **** 			SystemState = RUN_PRESET_CTRL;
 194               		.loc 1 44 4 is_stmt 1 view .LVU32
 195               		.loc 1 44 16 is_stmt 0 view .LVU33
 196 0094 6093 0000 		sts SystemState,r22
 197               	.LVL15:
 198               	.L25:
  38:System.cpp    **** 	
 199               		.loc 1 38 16 view .LVU34
 200 0098 8CEA      		ldi r24,lo8(-84)
 201               	.LVL16:
 202               	.L11:
 203               	/* epilogue start */
  45:System.cpp    **** 		}
  46:System.cpp    **** 		else if (dat[0] == 6)
  47:System.cpp    **** 		{
  48:System.cpp    **** 			SystemState = RUN_LOOP_CTRL;
  49:System.cpp    **** 		}
  50:System.cpp    **** 		else if (dat[0] == 8)
  51:System.cpp    **** 		{
  52:System.cpp    **** 			SystemState = TUNER;
  53:System.cpp    **** 		}
  54:System.cpp    **** 		else
  55:System.cpp    **** 		{
  56:System.cpp    **** 			SystemState = EDITING;
  57:System.cpp    **** 		}
  58:System.cpp    **** 	}
  59:System.cpp    **** 	else if (cmd == Update7segments && length == 4)
  60:System.cpp    **** 	{
  61:System.cpp    **** 		Segment7_WriteAll((char)dat[0], (char)dat[1], (char)dat[2], (char)dat[3], 0, 0, 0, 0);
  62:System.cpp    **** 	}
  63:System.cpp    **** 	else if (cmd == UpdatePresetLoopLEDs && length == 1)
  64:System.cpp    **** 	{
  65:System.cpp    **** 		MCP23017_WriteReg(MCP23017_ADDR_SWITCH_INDICATOR, OLATA, dat[0]);
  66:System.cpp    **** 	}
  67:System.cpp    **** 	else if (cmd == UpdateTunerLEDs && length == 2)
  68:System.cpp    **** 	{
  69:System.cpp    **** 		MCP23017_WriteReg(MCP23017_ADDR_TUNER_DISPLAY, OLATA, dat[0]);
  70:System.cpp    **** 				
  71:System.cpp    **** 		if (dat[1])
  72:System.cpp    **** 		{
  73:System.cpp    **** 			TUNER_GREEN_LED_PORT |= TUNER_GREEN_LED_MASK;
  74:System.cpp    **** 		}
  75:System.cpp    **** 		else
  76:System.cpp    **** 		{
  77:System.cpp    **** 			TUNER_GREEN_LED_PORT &= ~TUNER_GREEN_LED_MASK;
  78:System.cpp    **** 		}
  79:System.cpp    **** 	}
  80:System.cpp    **** 	else
  81:System.cpp    **** 	{
  82:System.cpp    **** 		response = NACK_BYTE;
  83:System.cpp    **** 	}
  84:System.cpp    **** 	
  85:System.cpp    **** 	return response;
  86:System.cpp    **** }
 204               		.loc 1 86 1 view .LVU35
 205 009a DF91      		pop r29
 206 009c CF91      		pop r28
 207               	.LVL17:
 208               		.loc 1 86 1 view .LVU36
 209 009e 0F91      		pop r16
 210 00a0 EF90      		pop r14
 211 00a2 CF90      		pop r12
 212 00a4 AF90      		pop r10
 213 00a6 0895      		ret
 214               	.LVL18:
 215               	.L14:
  46:System.cpp    **** 		{
 216               		.loc 1 46 8 is_stmt 1 view .LVU37
 217 00a8 8630      		cpi r24,lo8(6)
 218 00aa 01F4      		brne .L15
  48:System.cpp    **** 		}
 219               		.loc 1 48 4 view .LVU38
  48:System.cpp    **** 		}
 220               		.loc 1 48 16 is_stmt 0 view .LVU39
 221 00ac 82E0      		ldi r24,lo8(2)
 222               	.L26:
  52:System.cpp    **** 		}
 223               		.loc 1 52 16 view .LVU40
 224 00ae 8093 0000 		sts SystemState,r24
 225 00b2 00C0      		rjmp .L25
 226               	.L15:
  50:System.cpp    **** 		{
 227               		.loc 1 50 8 is_stmt 1 view .LVU41
 228 00b4 8830      		cpi r24,lo8(8)
 229 00b6 01F4      		brne .L16
  52:System.cpp    **** 		}
 230               		.loc 1 52 4 view .LVU42
  52:System.cpp    **** 		}
 231               		.loc 1 52 16 is_stmt 0 view .LVU43
 232 00b8 83E0      		ldi r24,lo8(3)
 233 00ba 00C0      		rjmp .L26
 234               	.L16:
  56:System.cpp    **** 		}
 235               		.loc 1 56 4 is_stmt 1 view .LVU44
  56:System.cpp    **** 		}
 236               		.loc 1 56 16 is_stmt 0 view .LVU45
 237 00bc 1092 0000 		sts SystemState,__zero_reg__
 238 00c0 00C0      		rjmp .L25
 239               	.LVL19:
 240               	.L12:
  59:System.cpp    **** 	{
 241               		.loc 1 59 7 is_stmt 1 view .LVU46
 242 00c2 873D      		cpi r24,lo8(-41)
 243 00c4 01F4      		brne .L17
  59:System.cpp    **** 	{
 244               		.loc 1 59 34 is_stmt 0 discriminator 1 view .LVU47
 245 00c6 6430      		cpi r22,lo8(4)
 246 00c8 01F4      		brne .L24
  61:System.cpp    **** 	}
 247               		.loc 1 61 3 is_stmt 1 view .LVU48
  61:System.cpp    **** 	}
 248               		.loc 1 61 20 is_stmt 0 view .LVU49
 249 00ca A12C      		mov r10,__zero_reg__
 250 00cc C12C      		mov r12,__zero_reg__
 251 00ce E12C      		mov r14,__zero_reg__
 252 00d0 00E0      		ldi r16,0
 253 00d2 2B81      		ldd r18,Y+3
 254 00d4 4A81      		ldd r20,Y+2
 255               	.LVL20:
  61:System.cpp    **** 	}
 256               		.loc 1 61 20 view .LVU50
 257 00d6 6981      		ldd r22,Y+1
 258               	.LVL21:
  61:System.cpp    **** 	}
 259               		.loc 1 61 20 view .LVU51
 260 00d8 8881      		ld r24,Y
 261               	.LVL22:
  61:System.cpp    **** 	}
 262               		.loc 1 61 20 view .LVU52
 263 00da 0E94 0000 		call _Z17Segment7_WriteAllcccchhhh
 264               	.LVL23:
 265 00de 00C0      		rjmp .L25
 266               	.LVL24:
 267               	.L17:
  63:System.cpp    **** 	{
 268               		.loc 1 63 7 is_stmt 1 view .LVU53
 269 00e0 803D      		cpi r24,lo8(-48)
 270 00e2 01F4      		brne .L18
  63:System.cpp    **** 	{
 271               		.loc 1 63 39 is_stmt 0 discriminator 1 view .LVU54
 272 00e4 6130      		cpi r22,lo8(1)
 273 00e6 01F4      		brne .L24
  65:System.cpp    **** 	}
 274               		.loc 1 65 3 is_stmt 1 view .LVU55
  65:System.cpp    **** 	}
 275               		.loc 1 65 20 is_stmt 0 view .LVU56
 276 00e8 4881      		ld r20,Y
 277               	.LVL25:
  65:System.cpp    **** 	}
 278               		.loc 1 65 20 view .LVU57
 279 00ea 64E1      		ldi r22,lo8(20)
 280               	.LVL26:
  65:System.cpp    **** 	}
 281               		.loc 1 65 20 view .LVU58
 282 00ec 80E0      		ldi r24,0
 283               	.LVL27:
  65:System.cpp    **** 	}
 284               		.loc 1 65 20 view .LVU59
 285 00ee 0E94 0000 		call _Z17MCP23017_WriteReghhh
 286               	.LVL28:
 287 00f2 00C0      		rjmp .L25
 288               	.LVL29:
 289               	.L18:
  67:System.cpp    **** 	{
 290               		.loc 1 67 7 is_stmt 1 view .LVU60
 291 00f4 833D      		cpi r24,lo8(-45)
 292 00f6 01F4      		brne .L24
  67:System.cpp    **** 	{
 293               		.loc 1 67 34 is_stmt 0 discriminator 1 view .LVU61
 294 00f8 6230      		cpi r22,lo8(2)
 295 00fa 01F4      		brne .L24
  69:System.cpp    **** 				
 296               		.loc 1 69 3 is_stmt 1 view .LVU62
  69:System.cpp    **** 				
 297               		.loc 1 69 20 is_stmt 0 view .LVU63
 298 00fc 4881      		ld r20,Y
 299               	.LVL30:
  69:System.cpp    **** 				
 300               		.loc 1 69 20 view .LVU64
 301 00fe 64E1      		ldi r22,lo8(20)
 302               	.LVL31:
  69:System.cpp    **** 				
 303               		.loc 1 69 20 view .LVU65
 304 0100 84E0      		ldi r24,lo8(4)
 305               	.LVL32:
  69:System.cpp    **** 				
 306               		.loc 1 69 20 view .LVU66
 307 0102 0E94 0000 		call _Z17MCP23017_WriteReghhh
 308               	.LVL33:
  71:System.cpp    **** 		{
 309               		.loc 1 71 3 is_stmt 1 view .LVU67
 310 0106 8981      		ldd r24,Y+1
 311 0108 8823      		tst r24
 312 010a 01F0      		breq .L19
  73:System.cpp    **** 		}
 313               		.loc 1 73 4 view .LVU68
  73:System.cpp    **** 		}
 314               		.loc 1 73 25 is_stmt 0 view .LVU69
 315 010c 289A      		sbi 0x5,0
 316 010e 00C0      		rjmp .L25
 317               	.L19:
  77:System.cpp    **** 		}
 318               		.loc 1 77 4 is_stmt 1 view .LVU70
  77:System.cpp    **** 		}
 319               		.loc 1 77 25 is_stmt 0 view .LVU71
 320 0110 2898      		cbi 0x5,0
 321 0112 00C0      		rjmp .L25
 322               	.LVL34:
 323               	.L24:
  82:System.cpp    **** 	}
 324               		.loc 1 82 12 view .LVU72
 325 0114 8AE2      		ldi r24,lo8(42)
 326               	.LVL35:
  85:System.cpp    **** }
 327               		.loc 1 85 2 is_stmt 1 view .LVU73
  85:System.cpp    **** }
 328               		.loc 1 85 9 is_stmt 0 view .LVU74
 329 0116 00C0      		rjmp .L11
 330               		.cfi_endproc
 331               	.LFE1:
 333               	.global	SystemState
 334               		.section .bss
 337               	SystemState:
 338 0000 00        		.zero	1
 339               		.text
 340               	.Letext0:
 341               		.file 2 "Footswitch.h"
 342               		.file 3 "System.h"
 343               		.file 4 "/usr/avr/include/stdint.h"
 344               		.file 5 "Segment7.h"
 345               		.file 6 "MCP23017.h"
 346               		.file 7 "MasterCom.h"